	.file	"program.cpp"
	.option nopic
	.attribute arch, "rv64i2p1_m2p0_a2p1_f2p2_d2p2_c2p0_zicsr2p0"
	.attribute unaligned_access, 0
	.attribute stack_align, 16
	.text
	.section	.text._ZSt17__size_to_integerm,"axG",@progbits,_ZSt17__size_to_integerm,comdat
	.align	1
	.weak	_ZSt17__size_to_integerm
	.type	_ZSt17__size_to_integerm, @function
_ZSt17__size_to_integerm:
.LFB328:
	.cfi_startproc
	addi	sp,sp,-32
	.cfi_def_cfa_offset 32
	sd	ra,24(sp)
	sd	s0,16(sp)
	.cfi_offset 1, -8
	.cfi_offset 8, -16
	addi	s0,sp,32
	.cfi_def_cfa 8, 0
	sd	a0,-24(s0)
	ld	a5,-24(s0)
	mv	a0,a5
	ld	ra,24(sp)
	.cfi_restore 1
	ld	s0,16(sp)
	.cfi_restore 8
	.cfi_def_cfa 2, 32
	addi	sp,sp,32
	.cfi_def_cfa_offset 0
	jr	ra
	.cfi_endproc
.LFE328:
	.size	_ZSt17__size_to_integerm, .-_ZSt17__size_to_integerm
	.section	.text._ZNSt9exceptionC2Ev,"axG",@progbits,_ZNSt9exceptionC5Ev,comdat
	.align	1
	.weak	_ZNSt9exceptionC2Ev
	.type	_ZNSt9exceptionC2Ev, @function
_ZNSt9exceptionC2Ev:
.LFB384:
	.cfi_startproc
	addi	sp,sp,-32
	.cfi_def_cfa_offset 32
	sd	ra,24(sp)
	sd	s0,16(sp)
	.cfi_offset 1, -8
	.cfi_offset 8, -16
	addi	s0,sp,32
	.cfi_def_cfa 8, 0
	sd	a0,-24(s0)
	lui	a5,%hi(_ZTVSt9exception+16)
	addi	a4,a5,%lo(_ZTVSt9exception+16)
	ld	a5,-24(s0)
	sd	a4,0(a5)
	nop
	ld	ra,24(sp)
	.cfi_restore 1
	ld	s0,16(sp)
	.cfi_restore 8
	.cfi_def_cfa 2, 32
	addi	sp,sp,32
	.cfi_def_cfa_offset 0
	jr	ra
	.cfi_endproc
.LFE384:
	.size	_ZNSt9exceptionC2Ev, .-_ZNSt9exceptionC2Ev
	.weak	_ZNSt9exceptionC1Ev
	.set	_ZNSt9exceptionC1Ev,_ZNSt9exceptionC2Ev
	.section	.text._ZnwmPv,"axG",@progbits,_ZnwmPv,comdat
	.align	1
	.weak	_ZnwmPv
	.type	_ZnwmPv, @function
_ZnwmPv:
.LFB392:
	.cfi_startproc
	addi	sp,sp,-32
	.cfi_def_cfa_offset 32
	sd	ra,24(sp)
	sd	s0,16(sp)
	.cfi_offset 1, -8
	.cfi_offset 8, -16
	addi	s0,sp,32
	.cfi_def_cfa 8, 0
	sd	a0,-24(s0)
	sd	a1,-32(s0)
	ld	a5,-32(s0)
	mv	a0,a5
	ld	ra,24(sp)
	.cfi_restore 1
	ld	s0,16(sp)
	.cfi_restore 8
	.cfi_def_cfa 2, 32
	addi	sp,sp,32
	.cfi_def_cfa_offset 0
	jr	ra
	.cfi_endproc
.LFE392:
	.size	_ZnwmPv, .-_ZnwmPv
	.section	.text._ZdlPvS_,"axG",@progbits,_ZdlPvS_,comdat
	.align	1
	.weak	_ZdlPvS_
	.type	_ZdlPvS_, @function
_ZdlPvS_:
.LFB394:
	.cfi_startproc
	addi	sp,sp,-32
	.cfi_def_cfa_offset 32
	sd	ra,24(sp)
	sd	s0,16(sp)
	.cfi_offset 1, -8
	.cfi_offset 8, -16
	addi	s0,sp,32
	.cfi_def_cfa 8, 0
	sd	a0,-24(s0)
	sd	a1,-32(s0)
	nop
	ld	ra,24(sp)
	.cfi_restore 1
	ld	s0,16(sp)
	.cfi_restore 8
	.cfi_def_cfa 2, 32
	addi	sp,sp,32
	.cfi_def_cfa_offset 0
	jr	ra
	.cfi_endproc
.LFE394:
	.size	_ZdlPvS_, .-_ZdlPvS_
	.section	.text._ZNSt11char_traitsIcE2ltERKcS2_,"axG",@progbits,_ZNSt11char_traitsIcE2ltERKcS2_,comdat
	.align	1
	.weak	_ZNSt11char_traitsIcE2ltERKcS2_
	.type	_ZNSt11char_traitsIcE2ltERKcS2_, @function
_ZNSt11char_traitsIcE2ltERKcS2_:
.LFB1555:
	.cfi_startproc
	addi	sp,sp,-32
	.cfi_def_cfa_offset 32
	sd	ra,24(sp)
	sd	s0,16(sp)
	.cfi_offset 1, -8
	.cfi_offset 8, -16
	addi	s0,sp,32
	.cfi_def_cfa 8, 0
	sd	a0,-24(s0)
	sd	a1,-32(s0)
	ld	a5,-24(s0)
	lbu	a4,0(a5)
	ld	a5,-32(s0)
	lbu	a5,0(a5)
	sext.w	a4,a4
	sext.w	a5,a5
	sltu	a5,a4,a5
	andi	a5,a5,0xff
	mv	a0,a5
	ld	ra,24(sp)
	.cfi_restore 1
	ld	s0,16(sp)
	.cfi_restore 8
	.cfi_def_cfa 2, 32
	addi	sp,sp,32
	.cfi_def_cfa_offset 0
	jr	ra
	.cfi_endproc
.LFE1555:
	.size	_ZNSt11char_traitsIcE2ltERKcS2_, .-_ZNSt11char_traitsIcE2ltERKcS2_
	.section	.text._ZNSt11char_traitsIcE7compareEPKcS2_m,"axG",@progbits,_ZNSt11char_traitsIcE7compareEPKcS2_m,comdat
	.align	1
	.weak	_ZNSt11char_traitsIcE7compareEPKcS2_m
	.type	_ZNSt11char_traitsIcE7compareEPKcS2_m, @function
_ZNSt11char_traitsIcE7compareEPKcS2_m:
.LFB1556:
	.cfi_startproc
	addi	sp,sp,-64
	.cfi_def_cfa_offset 64
	sd	ra,56(sp)
	sd	s0,48(sp)
	.cfi_offset 1, -8
	.cfi_offset 8, -16
	addi	s0,sp,64
	.cfi_def_cfa 8, 0
	sd	a0,-40(s0)
	sd	a1,-48(s0)
	sd	a2,-56(s0)
	ld	a5,-56(s0)
	bne	a5,zero,.L10
	li	a5,0
	j	.L11
.L10:
	li	a5,0
	beq	a5,zero,.L13
	sd	zero,-24(s0)
	j	.L14
.L17:
	ld	a4,-40(s0)
	ld	a5,-24(s0)
	add	a3,a4,a5
	ld	a4,-48(s0)
	ld	a5,-24(s0)
	add	a5,a4,a5
	mv	a1,a5
	mv	a0,a3
	call	_ZNSt11char_traitsIcE2ltERKcS2_
	mv	a5,a0
	beq	a5,zero,.L15
	li	a5,-1
	j	.L11
.L15:
	ld	a4,-48(s0)
	ld	a5,-24(s0)
	add	a3,a4,a5
	ld	a4,-40(s0)
	ld	a5,-24(s0)
	add	a5,a4,a5
	mv	a1,a5
	mv	a0,a3
	call	_ZNSt11char_traitsIcE2ltERKcS2_
	mv	a5,a0
	beq	a5,zero,.L16
	li	a5,1
	j	.L11
.L16:
	ld	a5,-24(s0)
	addi	a5,a5,1
	sd	a5,-24(s0)
.L14:
	ld	a4,-24(s0)
	ld	a5,-56(s0)
	bltu	a4,a5,.L17
	li	a5,0
	j	.L11
.L13:
	ld	a2,-56(s0)
	ld	a1,-48(s0)
	ld	a0,-40(s0)
	call	memcmp
	mv	a5,a0
	nop
.L11:
	mv	a0,a5
	ld	ra,56(sp)
	.cfi_restore 1
	ld	s0,48(sp)
	.cfi_restore 8
	.cfi_def_cfa 2, 64
	addi	sp,sp,64
	.cfi_def_cfa_offset 0
	jr	ra
	.cfi_endproc
.LFE1556:
	.size	_ZNSt11char_traitsIcE7compareEPKcS2_m, .-_ZNSt11char_traitsIcE7compareEPKcS2_m
	.section	.text._ZNSt11char_traitsIcE6lengthEPKc,"axG",@progbits,_ZNSt11char_traitsIcE6lengthEPKc,comdat
	.align	1
	.weak	_ZNSt11char_traitsIcE6lengthEPKc
	.type	_ZNSt11char_traitsIcE6lengthEPKc, @function
_ZNSt11char_traitsIcE6lengthEPKc:
.LFB1557:
	.cfi_startproc
	addi	sp,sp,-32
	.cfi_def_cfa_offset 32
	sd	ra,24(sp)
	sd	s0,16(sp)
	.cfi_offset 1, -8
	.cfi_offset 8, -16
	addi	s0,sp,32
	.cfi_def_cfa 8, 0
	sd	a0,-24(s0)
	li	a5,0
	beq	a5,zero,.L20
	ld	a0,-24(s0)
	call	_ZN9__gnu_cxx11char_traitsIcE6lengthEPKc
	mv	a5,a0
	j	.L21
.L20:
	ld	a0,-24(s0)
	call	strlen
	mv	a5,a0
	nop
.L21:
	mv	a0,a5
	ld	ra,24(sp)
	.cfi_restore 1
	ld	s0,16(sp)
	.cfi_restore 8
	.cfi_def_cfa 2, 32
	addi	sp,sp,32
	.cfi_def_cfa_offset 0
	jr	ra
	.cfi_endproc
.LFE1557:
	.size	_ZNSt11char_traitsIcE6lengthEPKc, .-_ZNSt11char_traitsIcE6lengthEPKc
	.section	.text._ZNSt11char_traitsIcE12to_char_typeERKi,"axG",@progbits,_ZNSt11char_traitsIcE12to_char_typeERKi,comdat
	.align	1
	.weak	_ZNSt11char_traitsIcE12to_char_typeERKi
	.type	_ZNSt11char_traitsIcE12to_char_typeERKi, @function
_ZNSt11char_traitsIcE12to_char_typeERKi:
.LFB1562:
	.cfi_startproc
	addi	sp,sp,-32
	.cfi_def_cfa_offset 32
	sd	ra,24(sp)
	sd	s0,16(sp)
	.cfi_offset 1, -8
	.cfi_offset 8, -16
	addi	s0,sp,32
	.cfi_def_cfa 8, 0
	sd	a0,-24(s0)
	ld	a5,-24(s0)
	lw	a5,0(a5)
	andi	a5,a5,0xff
	mv	a0,a5
	ld	ra,24(sp)
	.cfi_restore 1
	ld	s0,16(sp)
	.cfi_restore 8
	.cfi_def_cfa 2, 32
	addi	sp,sp,32
	.cfi_def_cfa_offset 0
	jr	ra
	.cfi_endproc
.LFE1562:
	.size	_ZNSt11char_traitsIcE12to_char_typeERKi, .-_ZNSt11char_traitsIcE12to_char_typeERKi
	.section	.text._ZZNSt7__cxx119to_stringEiENKUlPcmE_clES0_m,"axG",@progbits,_ZZNSt7__cxx119to_stringEiENKUlPcmE_clES0_m,comdat
	.align	1
	.weak	_ZZNSt7__cxx119to_stringEiENKUlPcmE_clES0_m
	.type	_ZZNSt7__cxx119to_stringEiENKUlPcmE_clES0_m, @function
_ZZNSt7__cxx119to_stringEiENKUlPcmE_clES0_m:
.LFB1934:
	.cfi_startproc
	addi	sp,sp,-48
	.cfi_def_cfa_offset 48
	sd	ra,40(sp)
	sd	s0,32(sp)
	.cfi_offset 1, -8
	.cfi_offset 8, -16
	addi	s0,sp,48
	.cfi_def_cfa 8, 0
	sd	a0,-24(s0)
	sd	a1,-32(s0)
	sd	a2,-40(s0)
	ld	a5,-32(s0)
	li	a4,45
	sb	a4,0(a5)
	ld	a5,-24(s0)
	lbu	a5,0(a5)
	mv	a4,a5
	ld	a5,-32(s0)
	add	a4,a5,a4
	ld	a5,-24(s0)
	lw	a3,4(a5)
	ld	a5,-24(s0)
	lw	a5,8(a5)
	mv	a2,a5
	mv	a1,a3
	mv	a0,a4
	call	_ZNSt8__detail18__to_chars_10_implIjEEvPcjT_
	ld	a5,-40(s0)
	mv	a0,a5
	ld	ra,40(sp)
	.cfi_restore 1
	ld	s0,32(sp)
	.cfi_restore 8
	.cfi_def_cfa 2, 48
	addi	sp,sp,48
	.cfi_def_cfa_offset 0
	jr	ra
	.cfi_endproc
.LFE1934:
	.size	_ZZNSt7__cxx119to_stringEiENKUlPcmE_clES0_m, .-_ZZNSt7__cxx119to_stringEiENKUlPcmE_clES0_m
	.section	.text._ZNSt7__cxx119to_stringEi,"axG",@progbits,_ZNSt7__cxx119to_stringEi,comdat
	.align	1
	.weak	_ZNSt7__cxx119to_stringEi
	.type	_ZNSt7__cxx119to_stringEi, @function
_ZNSt7__cxx119to_stringEi:
.LFB1931:
	.cfi_startproc
	.cfi_personality 0x9b,DW.ref.__gxx_personality_v0
	.cfi_lsda 0x1b,.LLSDA1931
	addi	sp,sp,-64
	.cfi_def_cfa_offset 64
	sd	ra,56(sp)
	sd	s0,48(sp)
	.cfi_offset 1, -8
	.cfi_offset 8, -16
	addi	s0,sp,64
	.cfi_def_cfa 8, 0
	sd	a0,-56(s0)
	mv	a5,a1
	sw	a5,-60(s0)
	lw	a5,-60(s0)
	srliw	a5,a5,31
	sb	a5,-17(s0)
	lbu	a5,-17(s0)
	andi	a5,a5,0xff
	beq	a5,zero,.L27
	lw	a5,-60(s0)
	negw	a5,a5
	sext.w	a5,a5
	j	.L28
.L27:
	lw	a5,-60(s0)
.L28:
	sw	a5,-24(s0)
	lw	a5,-24(s0)
	li	a1,10
	mv	a0,a5
	call	_ZNSt8__detail14__to_chars_lenIjEEjT_i
	mv	a5,a0
	sw	a5,-28(s0)
	ld	a0,-56(s0)
	call	_ZNSt7__cxx1112basic_stringIcSt11char_traitsIcESaIcEEC1Ev
	lbu	a5,-17(s0)
	sext.w	a5,a5
	lw	a4,-28(s0)
	addw	a5,a4,a5
	sext.w	a5,a5
	slli	a4,a5,32
	srli	a4,a4,32
	lbu	a5,-17(s0)
	sb	a5,-40(s0)
	lw	a5,-28(s0)
	sw	a5,-36(s0)
	lw	a5,-24(s0)
	sw	a5,-32(s0)
	ld	a2,-40(s0)
	ld	a3,-32(s0)
	mv	a1,a4
	ld	a0,-56(s0)
	call	_ZNSt7__cxx1112basic_stringIcSt11char_traitsIcESaIcEE22__resize_and_overwriteIZNS_9to_stringEiEUlPcmE_EEvmT_
	ld	a0,-56(s0)
	ld	ra,56(sp)
	.cfi_restore 1
	ld	s0,48(sp)
	.cfi_restore 8
	.cfi_def_cfa 2, 64
	addi	sp,sp,64
	.cfi_def_cfa_offset 0
	jr	ra
	.cfi_endproc
.LFE1931:
	.section	.gcc_except_table._ZNSt7__cxx119to_stringEi,"aG",@progbits,_ZNSt7__cxx119to_stringEi,comdat
.LLSDA1931:
	.byte	0xff
	.byte	0xff
	.byte	0x1
	.uleb128 .LLSDACSE1931-.LLSDACSB1931
.LLSDACSB1931:
.LLSDACSE1931:
	.section	.text._ZNSt7__cxx119to_stringEi,"axG",@progbits,_ZNSt7__cxx119to_stringEi,comdat
	.size	_ZNSt7__cxx119to_stringEi, .-_ZNSt7__cxx119to_stringEi
	.section	.text._ZNSt8__detail14__to_chars_lenIjEEjT_i,"axG",@progbits,_ZNSt8__detail14__to_chars_lenIjEEjT_i,comdat
	.align	1
	.weak	_ZNSt8__detail14__to_chars_lenIjEEjT_i
	.type	_ZNSt8__detail14__to_chars_lenIjEEjT_i, @function
_ZNSt8__detail14__to_chars_lenIjEEjT_i:
.LFB1936:
	.cfi_startproc
	addi	sp,sp,-64
	.cfi_def_cfa_offset 64
	sd	ra,56(sp)
	sd	s0,48(sp)
	.cfi_offset 1, -8
	.cfi_offset 8, -16
	addi	s0,sp,64
	.cfi_def_cfa 8, 0
	mv	a5,a0
	mv	a4,a1
	sw	a5,-52(s0)
	mv	a5,a4
	sw	a5,-56(s0)
	li	a5,1
	sw	a5,-20(s0)
	lw	a5,-56(s0)
	mulw	a5,a5,a5
	sext.w	a5,a5
	sw	a5,-24(s0)
	lw	a5,-56(s0)
	lw	a4,-24(s0)
	mulw	a5,a4,a5
	sw	a5,-28(s0)
	lw	a5,-56(s0)
	lw	a4,-28(s0)
	mulw	a5,a4,a5
	sext.w	a5,a5
	slli	a5,a5,32
	srli	a5,a5,32
	sd	a5,-40(s0)
.L36:
	lw	a5,-56(s0)
	lw	a4,-52(s0)
	sext.w	a4,a4
	bgeu	a4,a5,.L31
	lw	a5,-20(s0)
	j	.L32
.L31:
	lw	a5,-52(s0)
	mv	a4,a5
	lw	a5,-24(s0)
	sext.w	a4,a4
	sext.w	a5,a5
	bgeu	a4,a5,.L33
	lw	a5,-20(s0)
	addiw	a5,a5,1
	sext.w	a5,a5
	j	.L32
.L33:
	lw	a5,-52(s0)
	mv	a4,a5
	lw	a5,-28(s0)
	sext.w	a4,a4
	sext.w	a5,a5
	bgeu	a4,a5,.L34
	lw	a5,-20(s0)
	addiw	a5,a5,2
	sext.w	a5,a5
	j	.L32
.L34:
	lwu	a5,-52(s0)
	ld	a4,-40(s0)
	bleu	a4,a5,.L35
	lw	a5,-20(s0)
	addiw	a5,a5,3
	sext.w	a5,a5
	j	.L32
.L35:
	lwu	a4,-52(s0)
	ld	a5,-40(s0)
	divu	a5,a4,a5
	sw	a5,-52(s0)
	lw	a5,-20(s0)
	addiw	a5,a5,4
	sw	a5,-20(s0)
	j	.L36
.L32:
	mv	a0,a5
	ld	ra,56(sp)
	.cfi_restore 1
	ld	s0,48(sp)
	.cfi_restore 8
	.cfi_def_cfa 2, 64
	addi	sp,sp,64
	.cfi_def_cfa_offset 0
	jr	ra
	.cfi_endproc
.LFE1936:
	.size	_ZNSt8__detail14__to_chars_lenIjEEjT_i, .-_ZNSt8__detail14__to_chars_lenIjEEjT_i
	.section	.text._ZNSt8__detail14__to_chars_lenImEEjT_i,"axG",@progbits,_ZNSt8__detail14__to_chars_lenImEEjT_i,comdat
	.align	1
	.weak	_ZNSt8__detail14__to_chars_lenImEEjT_i
	.type	_ZNSt8__detail14__to_chars_lenImEEjT_i, @function
_ZNSt8__detail14__to_chars_lenImEEjT_i:
.LFB1941:
	.cfi_startproc
	addi	sp,sp,-64
	.cfi_def_cfa_offset 64
	sd	ra,56(sp)
	sd	s0,48(sp)
	.cfi_offset 1, -8
	.cfi_offset 8, -16
	addi	s0,sp,64
	.cfi_def_cfa 8, 0
	sd	a0,-56(s0)
	mv	a5,a1
	sw	a5,-60(s0)
	li	a5,1
	sw	a5,-20(s0)
	lw	a5,-60(s0)
	mulw	a5,a5,a5
	sext.w	a5,a5
	sw	a5,-24(s0)
	lw	a5,-60(s0)
	lw	a4,-24(s0)
	mulw	a5,a4,a5
	sw	a5,-28(s0)
	lw	a5,-60(s0)
	lw	a4,-28(s0)
	mulw	a5,a4,a5
	sext.w	a5,a5
	slli	a5,a5,32
	srli	a5,a5,32
	sd	a5,-40(s0)
.L43:
	lw	a5,-60(s0)
	slli	a5,a5,32
	srli	a5,a5,32
	ld	a4,-56(s0)
	bgeu	a4,a5,.L38
	lw	a5,-20(s0)
	j	.L39
.L38:
	lwu	a5,-24(s0)
	ld	a4,-56(s0)
	bgeu	a4,a5,.L40
	lw	a5,-20(s0)
	addiw	a5,a5,1
	sext.w	a5,a5
	j	.L39
.L40:
	lwu	a5,-28(s0)
	ld	a4,-56(s0)
	bgeu	a4,a5,.L41
	lw	a5,-20(s0)
	addiw	a5,a5,2
	sext.w	a5,a5
	j	.L39
.L41:
	ld	a4,-56(s0)
	ld	a5,-40(s0)
	bgeu	a4,a5,.L42
	lw	a5,-20(s0)
	addiw	a5,a5,3
	sext.w	a5,a5
	j	.L39
.L42:
	ld	a4,-56(s0)
	ld	a5,-40(s0)
	divu	a5,a4,a5
	sd	a5,-56(s0)
	lw	a5,-20(s0)
	addiw	a5,a5,4
	sw	a5,-20(s0)
	j	.L43
.L39:
	mv	a0,a5
	ld	ra,56(sp)
	.cfi_restore 1
	ld	s0,48(sp)
	.cfi_restore 8
	.cfi_def_cfa 2, 64
	addi	sp,sp,64
	.cfi_def_cfa_offset 0
	jr	ra
	.cfi_endproc
.LFE1941:
	.size	_ZNSt8__detail14__to_chars_lenImEEjT_i, .-_ZNSt8__detail14__to_chars_lenImEEjT_i
	.section	.text._ZZNSt7__cxx119to_stringEmENKUlPcmE_clES0_m,"axG",@progbits,_ZZNSt7__cxx119to_stringEmENKUlPcmE_clES0_m,comdat
	.align	1
	.weak	_ZZNSt7__cxx119to_stringEmENKUlPcmE_clES0_m
	.type	_ZZNSt7__cxx119to_stringEmENKUlPcmE_clES0_m, @function
_ZZNSt7__cxx119to_stringEmENKUlPcmE_clES0_m:
.LFB1942:
	.cfi_startproc
	addi	sp,sp,-48
	.cfi_def_cfa_offset 48
	sd	ra,40(sp)
	sd	s0,32(sp)
	.cfi_offset 1, -8
	.cfi_offset 8, -16
	addi	s0,sp,48
	.cfi_def_cfa 8, 0
	sd	a0,-24(s0)
	sd	a1,-32(s0)
	sd	a2,-40(s0)
	ld	a5,-40(s0)
	sext.w	a4,a5
	ld	a5,-24(s0)
	ld	a5,0(a5)
	mv	a2,a5
	mv	a1,a4
	ld	a0,-32(s0)
	call	_ZNSt8__detail18__to_chars_10_implImEEvPcjT_
	ld	a5,-40(s0)
	mv	a0,a5
	ld	ra,40(sp)
	.cfi_restore 1
	ld	s0,32(sp)
	.cfi_restore 8
	.cfi_def_cfa 2, 48
	addi	sp,sp,48
	.cfi_def_cfa_offset 0
	jr	ra
	.cfi_endproc
.LFE1942:
	.size	_ZZNSt7__cxx119to_stringEmENKUlPcmE_clES0_m, .-_ZZNSt7__cxx119to_stringEmENKUlPcmE_clES0_m
	.section	.text._ZNSt7__cxx119to_stringEm,"axG",@progbits,_ZNSt7__cxx119to_stringEm,comdat
	.align	1
	.weak	_ZNSt7__cxx119to_stringEm
	.type	_ZNSt7__cxx119to_stringEm, @function
_ZNSt7__cxx119to_stringEm:
.LFB1940:
	.cfi_startproc
	.cfi_personality 0x9b,DW.ref.__gxx_personality_v0
	.cfi_lsda 0x1b,.LLSDA1940
	addi	sp,sp,-64
	.cfi_def_cfa_offset 64
	sd	ra,56(sp)
	sd	s0,48(sp)
	sd	s1,40(sp)
	.cfi_offset 1, -8
	.cfi_offset 8, -16
	.cfi_offset 9, -24
	addi	s0,sp,64
	.cfi_def_cfa 8, 0
	sd	a0,-56(s0)
	sd	a1,-64(s0)
	li	a1,10
	ld	a0,-64(s0)
	call	_ZNSt8__detail14__to_chars_lenImEEjT_i
	mv	a5,a0
	sw	a5,-36(s0)
	ld	a0,-56(s0)
	call	_ZNSt7__cxx1112basic_stringIcSt11char_traitsIcESaIcEEC1Ev
	lwu	a5,-36(s0)
	ld	a4,-64(s0)
	mv	a2,a4
	mv	a1,a5
	ld	a0,-56(s0)
.LEHB0:
	call	_ZNSt7__cxx1112basic_stringIcSt11char_traitsIcESaIcEE22__resize_and_overwriteIZNS_9to_stringEmEUlPcmE_EEvmT_
.LEHE0:
	j	.L50
.L49:
	mv	s1,a0
	ld	a0,-56(s0)
	call	_ZNSt7__cxx1112basic_stringIcSt11char_traitsIcESaIcEED1Ev
	mv	a5,s1
	mv	a0,a5
.LEHB1:
	call	_Unwind_Resume
.LEHE1:
.L50:
	ld	a0,-56(s0)
	ld	ra,56(sp)
	.cfi_restore 1
	ld	s0,48(sp)
	.cfi_restore 8
	.cfi_def_cfa 2, 64
	ld	s1,40(sp)
	.cfi_restore 9
	addi	sp,sp,64
	.cfi_def_cfa_offset 0
	jr	ra
	.cfi_endproc
.LFE1940:
	.section	.gcc_except_table._ZNSt7__cxx119to_stringEm,"aG",@progbits,_ZNSt7__cxx119to_stringEm,comdat
.LLSDA1940:
	.byte	0xff
	.byte	0xff
	.byte	0x1
	.uleb128 .LLSDACSE1940-.LLSDACSB1940
.LLSDACSB1940:
	.uleb128 .LEHB0-.LFB1940
	.uleb128 .LEHE0-.LEHB0
	.uleb128 .L49-.LFB1940
	.uleb128 0
	.uleb128 .LEHB1-.LFB1940
	.uleb128 .LEHE1-.LEHB1
	.uleb128 0
	.uleb128 0
.LLSDACSE1940:
	.section	.text._ZNSt7__cxx119to_stringEm,"axG",@progbits,_ZNSt7__cxx119to_stringEm,comdat
	.size	_ZNSt7__cxx119to_stringEm, .-_ZNSt7__cxx119to_stringEm
	.section	.text._ZNKSt9type_info4nameEv,"axG",@progbits,_ZNKSt9type_info4nameEv,comdat
	.align	1
	.weak	_ZNKSt9type_info4nameEv
	.type	_ZNKSt9type_info4nameEv, @function
_ZNKSt9type_info4nameEv:
.LFB2016:
	.cfi_startproc
	addi	sp,sp,-32
	.cfi_def_cfa_offset 32
	sd	ra,24(sp)
	sd	s0,16(sp)
	.cfi_offset 1, -8
	.cfi_offset 8, -16
	addi	s0,sp,32
	.cfi_def_cfa 8, 0
	sd	a0,-24(s0)
	ld	a5,-24(s0)
	ld	a5,8(a5)
	lbu	a5,0(a5)
	mv	a4,a5
	li	a5,42
	bne	a4,a5,.L52
	ld	a5,-24(s0)
	ld	a5,8(a5)
	addi	a5,a5,1
	j	.L54
.L52:
	ld	a5,-24(s0)
	ld	a5,8(a5)
.L54:
	mv	a0,a5
	ld	ra,24(sp)
	.cfi_restore 1
	ld	s0,16(sp)
	.cfi_restore 8
	.cfi_def_cfa 2, 32
	addi	sp,sp,32
	.cfi_def_cfa_offset 0
	jr	ra
	.cfi_endproc
.LFE2016:
	.size	_ZNKSt9type_info4nameEv, .-_ZNKSt9type_info4nameEv
	.section	.text._ZNKSt9type_infoeqERKS_,"axG",@progbits,_ZNKSt9type_infoeqERKS_,comdat
	.align	1
	.weak	_ZNKSt9type_infoeqERKS_
	.type	_ZNKSt9type_infoeqERKS_, @function
_ZNKSt9type_infoeqERKS_:
.LFB2023:
	.cfi_startproc
	addi	sp,sp,-48
	.cfi_def_cfa_offset 48
	sd	ra,40(sp)
	sd	s0,32(sp)
	sd	s1,24(sp)
	.cfi_offset 1, -8
	.cfi_offset 8, -16
	.cfi_offset 9, -24
	addi	s0,sp,48
	.cfi_def_cfa 8, 0
	sd	a0,-40(s0)
	sd	a1,-48(s0)
	li	a5,0
	beq	a5,zero,.L57
	ld	a4,-40(s0)
	ld	a5,-48(s0)
	sub	a5,a4,a5
	seqz	a5,a5
	andi	a5,a5,0xff
	j	.L58
.L57:
	ld	a5,-40(s0)
	ld	a4,8(a5)
	ld	a5,-48(s0)
	ld	a5,8(a5)
	bne	a4,a5,.L59
	li	a5,1
	j	.L58
.L59:
	ld	a5,-40(s0)
	ld	a5,8(a5)
	lbu	a5,0(a5)
	mv	a4,a5
	li	a5,42
	beq	a4,a5,.L60
	ld	a5,-40(s0)
	ld	s1,8(a5)
	ld	a0,-48(s0)
	call	_ZNKSt9type_info4nameEv
	mv	a5,a0
	mv	a1,a5
	mv	a0,s1
	call	strcmp
	mv	a5,a0
	bne	a5,zero,.L60
	li	a5,1
	j	.L62
.L60:
	li	a5,0
.L62:
	nop
.L58:
	mv	a0,a5
	ld	ra,40(sp)
	.cfi_restore 1
	ld	s0,32(sp)
	.cfi_restore 8
	.cfi_def_cfa 2, 48
	ld	s1,24(sp)
	.cfi_restore 9
	addi	sp,sp,48
	.cfi_def_cfa_offset 0
	jr	ra
	.cfi_endproc
.LFE2023:
	.size	_ZNKSt9type_infoeqERKS_, .-_ZNKSt9type_infoeqERKS_
	.text
	.align	1
	.type	_ZL20__gthread_key_deletei, @function
_ZL20__gthread_key_deletei:
.LFB2066:
	.cfi_startproc
	addi	sp,sp,-32
	.cfi_def_cfa_offset 32
	sd	ra,24(sp)
	sd	s0,16(sp)
	.cfi_offset 1, -8
	.cfi_offset 8, -16
	addi	s0,sp,32
	.cfi_def_cfa 8, 0
	mv	a5,a0
	sw	a5,-20(s0)
	li	a5,0
	mv	a0,a5
	ld	ra,24(sp)
	.cfi_restore 1
	ld	s0,16(sp)
	.cfi_restore 8
	.cfi_def_cfa 2, 32
	addi	sp,sp,32
	.cfi_def_cfa_offset 0
	jr	ra
	.cfi_endproc
.LFE2066:
	.size	_ZL20__gthread_key_deletei, .-_ZL20__gthread_key_deletei
	.section	.text._ZNKSt8ios_base5widthEv,"axG",@progbits,_ZNKSt8ios_base5widthEv,comdat
	.align	1
	.weak	_ZNKSt8ios_base5widthEv
	.type	_ZNKSt8ios_base5widthEv, @function
_ZNKSt8ios_base5widthEv:
.LFB2225:
	.cfi_startproc
	addi	sp,sp,-32
	.cfi_def_cfa_offset 32
	sd	ra,24(sp)
	sd	s0,16(sp)
	.cfi_offset 1, -8
	.cfi_offset 8, -16
	addi	s0,sp,32
	.cfi_def_cfa 8, 0
	sd	a0,-24(s0)
	ld	a5,-24(s0)
	ld	a5,16(a5)
	mv	a0,a5
	ld	ra,24(sp)
	.cfi_restore 1
	ld	s0,16(sp)
	.cfi_restore 8
	.cfi_def_cfa 2, 32
	addi	sp,sp,32
	.cfi_def_cfa_offset 0
	jr	ra
	.cfi_endproc
.LFE2225:
	.size	_ZNKSt8ios_base5widthEv, .-_ZNKSt8ios_base5widthEv
	.section	.text._ZNSt8ios_base5widthEl,"axG",@progbits,_ZNSt8ios_base5widthEl,comdat
	.align	1
	.weak	_ZNSt8ios_base5widthEl
	.type	_ZNSt8ios_base5widthEl, @function
_ZNSt8ios_base5widthEl:
.LFB2226:
	.cfi_startproc
	addi	sp,sp,-48
	.cfi_def_cfa_offset 48
	sd	ra,40(sp)
	sd	s0,32(sp)
	.cfi_offset 1, -8
	.cfi_offset 8, -16
	addi	s0,sp,48
	.cfi_def_cfa 8, 0
	sd	a0,-40(s0)
	sd	a1,-48(s0)
	ld	a5,-40(s0)
	ld	a5,16(a5)
	sd	a5,-24(s0)
	ld	a5,-40(s0)
	ld	a4,-48(s0)
	sd	a4,16(a5)
	ld	a5,-24(s0)
	mv	a0,a5
	ld	ra,40(sp)
	.cfi_restore 1
	ld	s0,32(sp)
	.cfi_restore 8
	.cfi_def_cfa 2, 48
	addi	sp,sp,48
	.cfi_def_cfa_offset 0
	jr	ra
	.cfi_endproc
.LFE2226:
	.size	_ZNSt8ios_base5widthEl, .-_ZNSt8ios_base5widthEl
	.section	.text._ZSt3minImERKT_S2_S2_,"axG",@progbits,_ZSt3minImERKT_S2_S2_,comdat
	.align	1
	.weak	_ZSt3minImERKT_S2_S2_
	.type	_ZSt3minImERKT_S2_S2_, @function
_ZSt3minImERKT_S2_S2_:
.LFB2850:
	.cfi_startproc
	addi	sp,sp,-32
	.cfi_def_cfa_offset 32
	sd	ra,24(sp)
	sd	s0,16(sp)
	.cfi_offset 1, -8
	.cfi_offset 8, -16
	addi	s0,sp,32
	.cfi_def_cfa 8, 0
	sd	a0,-24(s0)
	sd	a1,-32(s0)
	ld	a5,-32(s0)
	ld	a4,0(a5)
	ld	a5,-24(s0)
	ld	a5,0(a5)
	bgeu	a4,a5,.L70
	ld	a5,-32(s0)
	j	.L71
.L70:
	ld	a5,-24(s0)
.L71:
	mv	a0,a5
	ld	ra,24(sp)
	.cfi_restore 1
	ld	s0,16(sp)
	.cfi_restore 8
	.cfi_def_cfa 2, 32
	addi	sp,sp,32
	.cfi_def_cfa_offset 0
	jr	ra
	.cfi_endproc
.LFE2850:
	.size	_ZSt3minImERKT_S2_S2_, .-_ZSt3minImERKT_S2_S2_
	.section	.text._ZNSt16_Sp_counted_baseILN9__gnu_cxx12_Lock_policyE0EE15_M_add_ref_copyEv,"axG",@progbits,_ZNSt16_Sp_counted_baseILN9__gnu_cxx12_Lock_policyE0EE15_M_add_ref_copyEv,comdat
	.align	1
	.weak	_ZNSt16_Sp_counted_baseILN9__gnu_cxx12_Lock_policyE0EE15_M_add_ref_copyEv
	.type	_ZNSt16_Sp_counted_baseILN9__gnu_cxx12_Lock_policyE0EE15_M_add_ref_copyEv, @function
_ZNSt16_Sp_counted_baseILN9__gnu_cxx12_Lock_policyE0EE15_M_add_ref_copyEv:
.LFB3528:
	.cfi_startproc
	addi	sp,sp,-32
	.cfi_def_cfa_offset 32
	sd	ra,24(sp)
	sd	s0,16(sp)
	.cfi_offset 1, -8
	.cfi_offset 8, -16
	addi	s0,sp,32
	.cfi_def_cfa 8, 0
	sd	a0,-24(s0)
	ld	a5,-24(s0)
	lw	a5,8(a5)
	addiw	a5,a5,1
	sext.w	a4,a5
	ld	a5,-24(s0)
	sw	a4,8(a5)
	nop
	ld	ra,24(sp)
	.cfi_restore 1
	ld	s0,16(sp)
	.cfi_restore 8
	.cfi_def_cfa 2, 32
	addi	sp,sp,32
	.cfi_def_cfa_offset 0
	jr	ra
	.cfi_endproc
.LFE3528:
	.size	_ZNSt16_Sp_counted_baseILN9__gnu_cxx12_Lock_policyE0EE15_M_add_ref_copyEv, .-_ZNSt16_Sp_counted_baseILN9__gnu_cxx12_Lock_policyE0EE15_M_add_ref_copyEv
	.section	.text._ZNSt16_Sp_counted_baseILN9__gnu_cxx12_Lock_policyE0EE10_M_releaseEv,"axG",@progbits,_ZNSt16_Sp_counted_baseILN9__gnu_cxx12_Lock_policyE0EE10_M_releaseEv,comdat
	.align	1
	.weak	_ZNSt16_Sp_counted_baseILN9__gnu_cxx12_Lock_policyE0EE10_M_releaseEv
	.type	_ZNSt16_Sp_counted_baseILN9__gnu_cxx12_Lock_policyE0EE10_M_releaseEv, @function
_ZNSt16_Sp_counted_baseILN9__gnu_cxx12_Lock_policyE0EE10_M_releaseEv:
.LFB3529:
	.cfi_startproc
	addi	sp,sp,-32
	.cfi_def_cfa_offset 32
	sd	ra,24(sp)
	sd	s0,16(sp)
	.cfi_offset 1, -8
	.cfi_offset 8, -16
	addi	s0,sp,32
	.cfi_def_cfa 8, 0
	sd	a0,-24(s0)
	ld	a5,-24(s0)
	lw	a5,8(a5)
	addiw	a5,a5,-1
	sext.w	a4,a5
	ld	a5,-24(s0)
	sw	a4,8(a5)
	ld	a5,-24(s0)
	lw	a5,8(a5)
	seqz	a5,a5
	andi	a5,a5,0xff
	beq	a5,zero,.L75
	ld	a5,-24(s0)
	ld	a5,0(a5)
	addi	a5,a5,16
	ld	a5,0(a5)
	ld	a0,-24(s0)
	jalr	a5
	ld	a5,-24(s0)
	lw	a5,12(a5)
	addiw	a5,a5,-1
	sext.w	a4,a5
	ld	a5,-24(s0)
	sw	a4,12(a5)
	ld	a5,-24(s0)
	lw	a5,12(a5)
	seqz	a5,a5
	andi	a5,a5,0xff
	beq	a5,zero,.L75
	ld	a5,-24(s0)
	ld	a5,0(a5)
	addi	a5,a5,24
	ld	a5,0(a5)
	ld	a0,-24(s0)
	jalr	a5
.L75:
	nop
	ld	ra,24(sp)
	.cfi_restore 1
	ld	s0,16(sp)
	.cfi_restore 8
	.cfi_def_cfa 2, 32
	addi	sp,sp,32
	.cfi_def_cfa_offset 0
	jr	ra
	.cfi_endproc
.LFE3529:
	.size	_ZNSt16_Sp_counted_baseILN9__gnu_cxx12_Lock_policyE0EE10_M_releaseEv, .-_ZNSt16_Sp_counted_baseILN9__gnu_cxx12_Lock_policyE0EE10_M_releaseEv
	.weak	_ZZNSt19_Sp_make_shared_tag5_S_tiEvE5__tag
	.section	.rodata._ZZNSt19_Sp_make_shared_tag5_S_tiEvE5__tag,"aG",@progbits,_ZZNSt19_Sp_make_shared_tag5_S_tiEvE5__tag,comdat
	.align	3
	.type	_ZZNSt19_Sp_make_shared_tag5_S_tiEvE5__tag, @object
	.size	_ZZNSt19_Sp_make_shared_tag5_S_tiEvE5__tag, 16
_ZZNSt19_Sp_make_shared_tag5_S_tiEvE5__tag:
	.zero	16
	.section	.text._ZNSt19_Sp_make_shared_tag5_S_tiEv,"axG",@progbits,_ZNSt19_Sp_make_shared_tag5_S_tiEv,comdat
	.align	1
	.weak	_ZNSt19_Sp_make_shared_tag5_S_tiEv
	.type	_ZNSt19_Sp_make_shared_tag5_S_tiEv, @function
_ZNSt19_Sp_make_shared_tag5_S_tiEv:
.LFB3557:
	.cfi_startproc
	addi	sp,sp,-16
	.cfi_def_cfa_offset 16
	sd	ra,8(sp)
	sd	s0,0(sp)
	.cfi_offset 1, -8
	.cfi_offset 8, -16
	addi	s0,sp,16
	.cfi_def_cfa 8, 0
	lui	a5,%hi(_ZZNSt19_Sp_make_shared_tag5_S_tiEvE5__tag)
	addi	a5,a5,%lo(_ZZNSt19_Sp_make_shared_tag5_S_tiEvE5__tag)
	mv	a0,a5
	ld	ra,8(sp)
	.cfi_restore 1
	ld	s0,0(sp)
	.cfi_restore 8
	.cfi_def_cfa 2, 16
	addi	sp,sp,16
	.cfi_def_cfa_offset 0
	jr	ra
	.cfi_endproc
.LFE3557:
	.size	_ZNSt19_Sp_make_shared_tag5_S_tiEv, .-_ZNSt19_Sp_make_shared_tag5_S_tiEv
	.section	.text._ZSt8isfinited,"axG",@progbits,_ZSt8isfinited,comdat
	.align	1
	.weak	_ZSt8isfinited
	.type	_ZSt8isfinited, @function
_ZSt8isfinited:
.LFB4481:
	.cfi_startproc
	addi	sp,sp,-32
	.cfi_def_cfa_offset 32
	sd	ra,24(sp)
	sd	s0,16(sp)
	.cfi_offset 1, -8
	.cfi_offset 8, -16
	addi	s0,sp,32
	.cfi_def_cfa 8, 0
	fsd	fa0,-24(s0)
	fld	fa5,-24(s0)
	fabs.d	fa4,fa5
	lui	a5,%hi(.LC0)
	fld	fa5,%lo(.LC0)(a5)
	frflags	a4
	fle.d	a5,fa4,fa5
	fsflags	a4
	seqz	a5,a5
	andi	a5,a5,0xff
	xori	a5,a5,1
	andi	a5,a5,0xff
	sext.w	a5,a5
	snez	a5,a5
	andi	a5,a5,0xff
	mv	a0,a5
	ld	ra,24(sp)
	.cfi_restore 1
	ld	s0,16(sp)
	.cfi_restore 8
	.cfi_def_cfa 2, 32
	addi	sp,sp,32
	.cfi_def_cfa_offset 0
	jr	ra
	.cfi_endproc
.LFE4481:
	.size	_ZSt8isfinited, .-_ZSt8isfinited
	.section	.text._ZSt7signbitd,"axG",@progbits,_ZSt7signbitd,comdat
	.align	1
	.weak	_ZSt7signbitd
	.type	_ZSt7signbitd, @function
_ZSt7signbitd:
.LFB4497:
	.cfi_startproc
	addi	sp,sp,-32
	.cfi_def_cfa_offset 32
	sd	ra,24(sp)
	sd	s0,16(sp)
	.cfi_offset 1, -8
	.cfi_offset 8, -16
	addi	s0,sp,32
	.cfi_def_cfa 8, 0
	fsd	fa0,-24(s0)
	ld	a5,-24(s0)
	srli	a5,a5,63
	andi	a5,a5,1
	sext.w	a5,a5
	snez	a5,a5
	andi	a5,a5,0xff
	mv	a0,a5
	ld	ra,24(sp)
	.cfi_restore 1
	ld	s0,16(sp)
	.cfi_restore 8
	.cfi_def_cfa 2, 32
	addi	sp,sp,32
	.cfi_def_cfa_offset 0
	jr	ra
	.cfi_endproc
.LFE4497:
	.size	_ZSt7signbitd, .-_ZSt7signbitd
	.section	.text._ZNSt14numeric_limitsIlE3maxEv,"axG",@progbits,_ZNSt14numeric_limitsIlE3maxEv,comdat
	.align	1
	.weak	_ZNSt14numeric_limitsIlE3maxEv
	.type	_ZNSt14numeric_limitsIlE3maxEv, @function
_ZNSt14numeric_limitsIlE3maxEv:
.LFB4740:
	.cfi_startproc
	addi	sp,sp,-16
	.cfi_def_cfa_offset 16
	sd	ra,8(sp)
	sd	s0,0(sp)
	.cfi_offset 1, -8
	.cfi_offset 8, -16
	addi	s0,sp,16
	.cfi_def_cfa 8, 0
	li	a5,-1
	srli	a5,a5,1
	mv	a0,a5
	ld	ra,8(sp)
	.cfi_restore 1
	ld	s0,0(sp)
	.cfi_restore 8
	.cfi_def_cfa 2, 16
	addi	sp,sp,16
	.cfi_def_cfa_offset 0
	jr	ra
	.cfi_endproc
.LFE4740:
	.size	_ZNSt14numeric_limitsIlE3maxEv, .-_ZNSt14numeric_limitsIlE3maxEv
	.section	.text._ZNSt14numeric_limitsImE3maxEv,"axG",@progbits,_ZNSt14numeric_limitsImE3maxEv,comdat
	.align	1
	.weak	_ZNSt14numeric_limitsImE3maxEv
	.type	_ZNSt14numeric_limitsImE3maxEv, @function
_ZNSt14numeric_limitsImE3maxEv:
.LFB4749:
	.cfi_startproc
	addi	sp,sp,-16
	.cfi_def_cfa_offset 16
	sd	ra,8(sp)
	sd	s0,0(sp)
	.cfi_offset 1, -8
	.cfi_offset 8, -16
	addi	s0,sp,16
	.cfi_def_cfa 8, 0
	li	a5,-1
	mv	a0,a5
	ld	ra,8(sp)
	.cfi_restore 1
	ld	s0,0(sp)
	.cfi_restore 8
	.cfi_def_cfa 2, 16
	addi	sp,sp,16
	.cfi_def_cfa_offset 0
	jr	ra
	.cfi_endproc
.LFE4749:
	.size	_ZNSt14numeric_limitsImE3maxEv, .-_ZNSt14numeric_limitsImE3maxEv
	.section	.text._ZN8nlohmann16json_abi_v3_11_36detail13concat_lengthEv,"axG",@progbits,_ZN8nlohmann16json_abi_v3_11_36detail13concat_lengthEv,comdat
	.align	1
	.weak	_ZN8nlohmann16json_abi_v3_11_36detail13concat_lengthEv
	.type	_ZN8nlohmann16json_abi_v3_11_36detail13concat_lengthEv, @function
_ZN8nlohmann16json_abi_v3_11_36detail13concat_lengthEv:
.LFB5734:
	.cfi_startproc
	addi	sp,sp,-16
	.cfi_def_cfa_offset 16
	sd	ra,8(sp)
	sd	s0,0(sp)
	.cfi_offset 1, -8
	.cfi_offset 8, -16
	addi	s0,sp,16
	.cfi_def_cfa 8, 0
	li	a5,0
	mv	a0,a5
	ld	ra,8(sp)
	.cfi_restore 1
	ld	s0,0(sp)
	.cfi_restore 8
	.cfi_def_cfa 2, 16
	addi	sp,sp,16
	.cfi_def_cfa_offset 0
	jr	ra
	.cfi_endproc
.LFE5734:
	.size	_ZN8nlohmann16json_abi_v3_11_36detail13concat_lengthEv, .-_ZN8nlohmann16json_abi_v3_11_36detail13concat_lengthEv
	.section	.text._ZNK8nlohmann16json_abi_v3_11_36detail9exception4whatEv,"axG",@progbits,_ZNK8nlohmann16json_abi_v3_11_36detail9exception4whatEv,comdat
	.align	1
	.weak	_ZNK8nlohmann16json_abi_v3_11_36detail9exception4whatEv
	.type	_ZNK8nlohmann16json_abi_v3_11_36detail9exception4whatEv, @function
_ZNK8nlohmann16json_abi_v3_11_36detail9exception4whatEv:
.LFB5744:
	.cfi_startproc
	addi	sp,sp,-32
	.cfi_def_cfa_offset 32
	sd	ra,24(sp)
	sd	s0,16(sp)
	.cfi_offset 1, -8
	.cfi_offset 8, -16
	addi	s0,sp,32
	.cfi_def_cfa 8, 0
	sd	a0,-24(s0)
	ld	a5,-24(s0)
	addi	a5,a5,16
	mv	a0,a5
	call	_ZNKSt13runtime_error4whatEv
	mv	a5,a0
	mv	a0,a5
	ld	ra,24(sp)
	.cfi_restore 1
	ld	s0,16(sp)
	.cfi_restore 8
	.cfi_def_cfa 2, 32
	addi	sp,sp,32
	.cfi_def_cfa_offset 0
	jr	ra
	.cfi_endproc
.LFE5744:
	.size	_ZNK8nlohmann16json_abi_v3_11_36detail9exception4whatEv, .-_ZNK8nlohmann16json_abi_v3_11_36detail9exception4whatEv
	.section	.text._ZN8nlohmann16json_abi_v3_11_36detail9exceptionC2EiPKc,"axG",@progbits,_ZN8nlohmann16json_abi_v3_11_36detail9exceptionC5EiPKc,comdat
	.align	1
	.weak	_ZN8nlohmann16json_abi_v3_11_36detail9exceptionC2EiPKc
	.type	_ZN8nlohmann16json_abi_v3_11_36detail9exceptionC2EiPKc, @function
_ZN8nlohmann16json_abi_v3_11_36detail9exceptionC2EiPKc:
.LFB5746:
	.cfi_startproc
	.cfi_personality 0x9b,DW.ref.__gxx_personality_v0
	.cfi_lsda 0x1b,.LLSDA5746
	addi	sp,sp,-64
	.cfi_def_cfa_offset 64
	sd	ra,56(sp)
	sd	s0,48(sp)
	sd	s1,40(sp)
	.cfi_offset 1, -8
	.cfi_offset 8, -16
	.cfi_offset 9, -24
	addi	s0,sp,64
	.cfi_def_cfa 8, 0
	sd	a0,-40(s0)
	mv	a5,a1
	sd	a2,-56(s0)
	sw	a5,-44(s0)
	ld	a5,-40(s0)
	mv	a0,a5
	call	_ZNSt9exceptionC2Ev
	lui	a5,%hi(_ZTVN8nlohmann16json_abi_v3_11_36detail9exceptionE+16)
	addi	a4,a5,%lo(_ZTVN8nlohmann16json_abi_v3_11_36detail9exceptionE+16)
	ld	a5,-40(s0)
	sd	a4,0(a5)
	ld	a5,-40(s0)
	lw	a4,-44(s0)
	sw	a4,8(a5)
	ld	a5,-40(s0)
	addi	a5,a5,16
	ld	a1,-56(s0)
	mv	a0,a5
.LEHB2:
	call	_ZNSt13runtime_errorC1EPKc
.LEHE2:
	j	.L93
.L92:
	mv	s1,a0
	ld	a5,-40(s0)
	mv	a0,a5
	call	_ZNSt9exceptionD2Ev
	mv	a5,s1
	mv	a0,a5
.LEHB3:
	call	_Unwind_Resume
.LEHE3:
.L93:
	ld	ra,56(sp)
	.cfi_restore 1
	ld	s0,48(sp)
	.cfi_restore 8
	.cfi_def_cfa 2, 64
	ld	s1,40(sp)
	.cfi_restore 9
	addi	sp,sp,64
	.cfi_def_cfa_offset 0
	jr	ra
	.cfi_endproc
.LFE5746:
	.section	.gcc_except_table._ZN8nlohmann16json_abi_v3_11_36detail9exceptionC2EiPKc,"aG",@progbits,_ZN8nlohmann16json_abi_v3_11_36detail9exceptionC5EiPKc,comdat
.LLSDA5746:
	.byte	0xff
	.byte	0xff
	.byte	0x1
	.uleb128 .LLSDACSE5746-.LLSDACSB5746
.LLSDACSB5746:
	.uleb128 .LEHB2-.LFB5746
	.uleb128 .LEHE2-.LEHB2
	.uleb128 .L92-.LFB5746
	.uleb128 0
	.uleb128 .LEHB3-.LFB5746
	.uleb128 .LEHE3-.LEHB3
	.uleb128 0
	.uleb128 0
.LLSDACSE5746:
	.section	.text._ZN8nlohmann16json_abi_v3_11_36detail9exceptionC2EiPKc,"axG",@progbits,_ZN8nlohmann16json_abi_v3_11_36detail9exceptionC5EiPKc,comdat
	.size	_ZN8nlohmann16json_abi_v3_11_36detail9exceptionC2EiPKc, .-_ZN8nlohmann16json_abi_v3_11_36detail9exceptionC2EiPKc
	.weak	_ZN8nlohmann16json_abi_v3_11_36detail9exceptionC1EiPKc
	.set	_ZN8nlohmann16json_abi_v3_11_36detail9exceptionC1EiPKc,_ZN8nlohmann16json_abi_v3_11_36detail9exceptionC2EiPKc
	.section	.rodata
	.align	3
.LC1:
	.string	"] "
	.align	3
.LC2:
	.string	"[json.exception."
	.section	.text._ZN8nlohmann16json_abi_v3_11_36detail9exception4nameERKNSt7__cxx1112basic_stringIcSt11char_traitsIcESaIcEEEi,"axG",@progbits,_ZN8nlohmann16json_abi_v3_11_36detail9exception4nameERKNSt7__cxx1112basic_stringIcSt11char_traitsIcESaIcEEEi,comdat
	.align	1
	.weak	_ZN8nlohmann16json_abi_v3_11_36detail9exception4nameERKNSt7__cxx1112basic_stringIcSt11char_traitsIcESaIcEEEi
	.type	_ZN8nlohmann16json_abi_v3_11_36detail9exception4nameERKNSt7__cxx1112basic_stringIcSt11char_traitsIcESaIcEEEi, @function
_ZN8nlohmann16json_abi_v3_11_36detail9exception4nameERKNSt7__cxx1112basic_stringIcSt11char_traitsIcESaIcEEEi:
.LFB5748:
	.cfi_startproc
	.cfi_personality 0x9b,DW.ref.__gxx_personality_v0
	.cfi_lsda 0x1b,.LLSDA5748
	addi	sp,sp,-112
	.cfi_def_cfa_offset 112
	sd	ra,104(sp)
	sd	s0,96(sp)
	sd	s1,88(sp)
	.cfi_offset 1, -8
	.cfi_offset 8, -16
	.cfi_offset 9, -24
	addi	s0,sp,112
	.cfi_def_cfa 8, 0
	sd	a0,-88(s0)
	sd	a1,-96(s0)
	mv	a5,a2
	sw	a5,-100(s0)
	li	a5,46
	sb	a5,-65(s0)
	addi	a5,s0,-64
	lw	a4,-100(s0)
	mv	a1,a4
	mv	a0,a5
	call	_ZNSt7__cxx119to_stringEi
	ld	a0,-88(s0)
	addi	a4,s0,-64
	addi	a3,s0,-65
	lui	a5,%hi(.LC1)
	addi	a5,a5,%lo(.LC1)
	ld	a2,-96(s0)
	lui	a1,%hi(.LC2)
	addi	a1,a1,%lo(.LC2)
.LEHB4:
	call	_ZN8nlohmann16json_abi_v3_11_36detail6concatINSt7__cxx1112basic_stringIcSt11char_traitsIcESaIcEEEJRA17_KcRKS8_cS8_RA3_S9_EEET_DpOT0_
.LEHE4:
	nop
	addi	a5,s0,-64
	mv	a0,a5
	call	_ZNSt7__cxx1112basic_stringIcSt11char_traitsIcESaIcEED1Ev
	j	.L98
.L97:
	mv	s1,a0
	addi	a5,s0,-64
	mv	a0,a5
	call	_ZNSt7__cxx1112basic_stringIcSt11char_traitsIcESaIcEED1Ev
	mv	a5,s1
	mv	a0,a5
.LEHB5:
	call	_Unwind_Resume
.LEHE5:
.L98:
	ld	a0,-88(s0)
	ld	ra,104(sp)
	.cfi_restore 1
	ld	s0,96(sp)
	.cfi_restore 8
	.cfi_def_cfa 2, 112
	ld	s1,88(sp)
	.cfi_restore 9
	addi	sp,sp,112
	.cfi_def_cfa_offset 0
	jr	ra
	.cfi_endproc
.LFE5748:
	.section	.gcc_except_table._ZN8nlohmann16json_abi_v3_11_36detail9exception4nameERKNSt7__cxx1112basic_stringIcSt11char_traitsIcESaIcEEEi,"aG",@progbits,_ZN8nlohmann16json_abi_v3_11_36detail9exception4nameERKNSt7__cxx1112basic_stringIcSt11char_traitsIcESaIcEEEi,comdat
.LLSDA5748:
	.byte	0xff
	.byte	0xff
	.byte	0x1
	.uleb128 .LLSDACSE5748-.LLSDACSB5748
.LLSDACSB5748:
	.uleb128 .LEHB4-.LFB5748
	.uleb128 .LEHE4-.LEHB4
	.uleb128 .L97-.LFB5748
	.uleb128 0
	.uleb128 .LEHB5-.LFB5748
	.uleb128 .LEHE5-.LEHB5
	.uleb128 0
	.uleb128 0
.LLSDACSE5748:
	.section	.text._ZN8nlohmann16json_abi_v3_11_36detail9exception4nameERKNSt7__cxx1112basic_stringIcSt11char_traitsIcESaIcEEEi,"axG",@progbits,_ZN8nlohmann16json_abi_v3_11_36detail9exception4nameERKNSt7__cxx1112basic_stringIcSt11char_traitsIcESaIcEEEi,comdat
	.size	_ZN8nlohmann16json_abi_v3_11_36detail9exception4nameERKNSt7__cxx1112basic_stringIcSt11char_traitsIcESaIcEEEi, .-_ZN8nlohmann16json_abi_v3_11_36detail9exception4nameERKNSt7__cxx1112basic_stringIcSt11char_traitsIcESaIcEEEi
	.section	.rodata
	.align	3
.LC3:
	.string	""
	.section	.text._ZN8nlohmann16json_abi_v3_11_36detail9exception11diagnosticsB5cxx11EDn,"axG",@progbits,_ZN8nlohmann16json_abi_v3_11_36detail9exception11diagnosticsB5cxx11EDn,comdat
	.align	1
	.weak	_ZN8nlohmann16json_abi_v3_11_36detail9exception11diagnosticsB5cxx11EDn
	.type	_ZN8nlohmann16json_abi_v3_11_36detail9exception11diagnosticsB5cxx11EDn, @function
_ZN8nlohmann16json_abi_v3_11_36detail9exception11diagnosticsB5cxx11EDn:
.LFB5749:
	.cfi_startproc
	.cfi_personality 0x9b,DW.ref.__gxx_personality_v0
	.cfi_lsda 0x1b,.LLSDA5749
	addi	sp,sp,-64
	.cfi_def_cfa_offset 64
	sd	ra,56(sp)
	sd	s0,48(sp)
	sd	s1,40(sp)
	.cfi_offset 1, -8
	.cfi_offset 8, -16
	.cfi_offset 9, -24
	addi	s0,sp,64
	.cfi_def_cfa 8, 0
	sd	a0,-56(s0)
	sd	a1,-64(s0)
	addi	a5,s0,-48
	sd	a5,-40(s0)
	nop
	nop
	addi	a5,s0,-48
	mv	a2,a5
	lui	a5,%hi(.LC3)
	addi	a1,a5,%lo(.LC3)
	ld	a0,-56(s0)
.LEHB6:
	call	_ZNSt7__cxx1112basic_stringIcSt11char_traitsIcESaIcEEC1IS3_EEPKcRKS3_
.LEHE6:
	addi	a5,s0,-48
	mv	a0,a5
	call	_ZNSt15__new_allocatorIcED2Ev
	nop
	j	.L103
.L102:
	mv	s1,a0
	addi	a5,s0,-48
	mv	a0,a5
	call	_ZNSt15__new_allocatorIcED2Ev
	nop
	mv	a5,s1
	mv	a0,a5
.LEHB7:
	call	_Unwind_Resume
.LEHE7:
.L103:
	ld	a0,-56(s0)
	ld	ra,56(sp)
	.cfi_restore 1
	ld	s0,48(sp)
	.cfi_restore 8
	.cfi_def_cfa 2, 64
	ld	s1,40(sp)
	.cfi_restore 9
	addi	sp,sp,64
	.cfi_def_cfa_offset 0
	jr	ra
	.cfi_endproc
.LFE5749:
	.section	.gcc_except_table._ZN8nlohmann16json_abi_v3_11_36detail9exception11diagnosticsB5cxx11EDn,"aG",@progbits,_ZN8nlohmann16json_abi_v3_11_36detail9exception11diagnosticsB5cxx11EDn,comdat
.LLSDA5749:
	.byte	0xff
	.byte	0xff
	.byte	0x1
	.uleb128 .LLSDACSE5749-.LLSDACSB5749
.LLSDACSB5749:
	.uleb128 .LEHB6-.LFB5749
	.uleb128 .LEHE6-.LEHB6
	.uleb128 .L102-.LFB5749
	.uleb128 0
	.uleb128 .LEHB7-.LFB5749
	.uleb128 .LEHE7-.LEHB7
	.uleb128 0
	.uleb128 0
.LLSDACSE5749:
	.section	.text._ZN8nlohmann16json_abi_v3_11_36detail9exception11diagnosticsB5cxx11EDn,"axG",@progbits,_ZN8nlohmann16json_abi_v3_11_36detail9exception11diagnosticsB5cxx11EDn,comdat
	.size	_ZN8nlohmann16json_abi_v3_11_36detail9exception11diagnosticsB5cxx11EDn, .-_ZN8nlohmann16json_abi_v3_11_36detail9exception11diagnosticsB5cxx11EDn
	.section	.text._ZN8nlohmann16json_abi_v3_11_36detail9exceptionD2Ev,"axG",@progbits,_ZN8nlohmann16json_abi_v3_11_36detail9exceptionD5Ev,comdat
	.align	1
	.weak	_ZN8nlohmann16json_abi_v3_11_36detail9exceptionD2Ev
	.type	_ZN8nlohmann16json_abi_v3_11_36detail9exceptionD2Ev, @function
_ZN8nlohmann16json_abi_v3_11_36detail9exceptionD2Ev:
.LFB5755:
	.cfi_startproc
	addi	sp,sp,-32
	.cfi_def_cfa_offset 32
	sd	ra,24(sp)
	sd	s0,16(sp)
	.cfi_offset 1, -8
	.cfi_offset 8, -16
	addi	s0,sp,32
	.cfi_def_cfa 8, 0
	sd	a0,-24(s0)
	lui	a5,%hi(_ZTVN8nlohmann16json_abi_v3_11_36detail9exceptionE+16)
	addi	a4,a5,%lo(_ZTVN8nlohmann16json_abi_v3_11_36detail9exceptionE+16)
	ld	a5,-24(s0)
	sd	a4,0(a5)
	ld	a5,-24(s0)
	addi	a5,a5,16
	mv	a0,a5
	call	_ZNSt13runtime_errorD1Ev
	ld	a5,-24(s0)
	mv	a0,a5
	call	_ZNSt9exceptionD2Ev
	nop
	ld	ra,24(sp)
	.cfi_restore 1
	ld	s0,16(sp)
	.cfi_restore 8
	.cfi_def_cfa 2, 32
	addi	sp,sp,32
	.cfi_def_cfa_offset 0
	jr	ra
	.cfi_endproc
.LFE5755:
	.size	_ZN8nlohmann16json_abi_v3_11_36detail9exceptionD2Ev, .-_ZN8nlohmann16json_abi_v3_11_36detail9exceptionD2Ev
	.weak	_ZN8nlohmann16json_abi_v3_11_36detail9exceptionD1Ev
	.set	_ZN8nlohmann16json_abi_v3_11_36detail9exceptionD1Ev,_ZN8nlohmann16json_abi_v3_11_36detail9exceptionD2Ev
	.section	.text._ZN8nlohmann16json_abi_v3_11_36detail9exceptionD0Ev,"axG",@progbits,_ZN8nlohmann16json_abi_v3_11_36detail9exceptionD5Ev,comdat
	.align	1
	.weak	_ZN8nlohmann16json_abi_v3_11_36detail9exceptionD0Ev
	.type	_ZN8nlohmann16json_abi_v3_11_36detail9exceptionD0Ev, @function
_ZN8nlohmann16json_abi_v3_11_36detail9exceptionD0Ev:
.LFB5757:
	.cfi_startproc
	addi	sp,sp,-32
	.cfi_def_cfa_offset 32
	sd	ra,24(sp)
	sd	s0,16(sp)
	.cfi_offset 1, -8
	.cfi_offset 8, -16
	addi	s0,sp,32
	.cfi_def_cfa 8, 0
	sd	a0,-24(s0)
	ld	a0,-24(s0)
	call	_ZN8nlohmann16json_abi_v3_11_36detail9exceptionD1Ev
	li	a1,32
	ld	a0,-24(s0)
	call	_ZdlPvm
	ld	ra,24(sp)
	.cfi_restore 1
	ld	s0,16(sp)
	.cfi_restore 8
	.cfi_def_cfa 2, 32
	addi	sp,sp,32
	.cfi_def_cfa_offset 0
	jr	ra
	.cfi_endproc
.LFE5757:
	.size	_ZN8nlohmann16json_abi_v3_11_36detail9exceptionD0Ev, .-_ZN8nlohmann16json_abi_v3_11_36detail9exceptionD0Ev
	.section	.text._ZN8nlohmann16json_abi_v3_11_36detail10type_errorC2EiPKc,"axG",@progbits,_ZN8nlohmann16json_abi_v3_11_36detail10type_errorC5EiPKc,comdat
	.align	1
	.weak	_ZN8nlohmann16json_abi_v3_11_36detail10type_errorC2EiPKc
	.type	_ZN8nlohmann16json_abi_v3_11_36detail10type_errorC2EiPKc, @function
_ZN8nlohmann16json_abi_v3_11_36detail10type_errorC2EiPKc:
.LFB5767:
	.cfi_startproc
	addi	sp,sp,-48
	.cfi_def_cfa_offset 48
	sd	ra,40(sp)
	sd	s0,32(sp)
	.cfi_offset 1, -8
	.cfi_offset 8, -16
	addi	s0,sp,48
	.cfi_def_cfa 8, 0
	sd	a0,-24(s0)
	mv	a5,a1
	sd	a2,-40(s0)
	sw	a5,-28(s0)
	ld	a5,-24(s0)
	lw	a4,-28(s0)
	ld	a2,-40(s0)
	mv	a1,a4
	mv	a0,a5
	call	_ZN8nlohmann16json_abi_v3_11_36detail9exceptionC2EiPKc
	lui	a5,%hi(_ZTVN8nlohmann16json_abi_v3_11_36detail10type_errorE+16)
	addi	a4,a5,%lo(_ZTVN8nlohmann16json_abi_v3_11_36detail10type_errorE+16)
	ld	a5,-24(s0)
	sd	a4,0(a5)
	nop
	ld	ra,40(sp)
	.cfi_restore 1
	ld	s0,32(sp)
	.cfi_restore 8
	.cfi_def_cfa 2, 48
	addi	sp,sp,48
	.cfi_def_cfa_offset 0
	jr	ra
	.cfi_endproc
.LFE5767:
	.size	_ZN8nlohmann16json_abi_v3_11_36detail10type_errorC2EiPKc, .-_ZN8nlohmann16json_abi_v3_11_36detail10type_errorC2EiPKc
	.weak	_ZN8nlohmann16json_abi_v3_11_36detail10type_errorC1EiPKc
	.set	_ZN8nlohmann16json_abi_v3_11_36detail10type_errorC1EiPKc,_ZN8nlohmann16json_abi_v3_11_36detail10type_errorC2EiPKc
	.section	.text._ZN8nlohmann16json_abi_v3_11_36detail11other_errorC2EiPKc,"axG",@progbits,_ZN8nlohmann16json_abi_v3_11_36detail11other_errorC5EiPKc,comdat
	.align	1
	.weak	_ZN8nlohmann16json_abi_v3_11_36detail11other_errorC2EiPKc
	.type	_ZN8nlohmann16json_abi_v3_11_36detail11other_errorC2EiPKc, @function
_ZN8nlohmann16json_abi_v3_11_36detail11other_errorC2EiPKc:
.LFB5775:
	.cfi_startproc
	addi	sp,sp,-48
	.cfi_def_cfa_offset 48
	sd	ra,40(sp)
	sd	s0,32(sp)
	.cfi_offset 1, -8
	.cfi_offset 8, -16
	addi	s0,sp,48
	.cfi_def_cfa 8, 0
	sd	a0,-24(s0)
	mv	a5,a1
	sd	a2,-40(s0)
	sw	a5,-28(s0)
	ld	a5,-24(s0)
	lw	a4,-28(s0)
	ld	a2,-40(s0)
	mv	a1,a4
	mv	a0,a5
	call	_ZN8nlohmann16json_abi_v3_11_36detail9exceptionC2EiPKc
	lui	a5,%hi(_ZTVN8nlohmann16json_abi_v3_11_36detail11other_errorE+16)
	addi	a4,a5,%lo(_ZTVN8nlohmann16json_abi_v3_11_36detail11other_errorE+16)
	ld	a5,-24(s0)
	sd	a4,0(a5)
	nop
	ld	ra,40(sp)
	.cfi_restore 1
	ld	s0,32(sp)
	.cfi_restore 8
	.cfi_def_cfa 2, 48
	addi	sp,sp,48
	.cfi_def_cfa_offset 0
	jr	ra
	.cfi_endproc
.LFE5775:
	.size	_ZN8nlohmann16json_abi_v3_11_36detail11other_errorC2EiPKc, .-_ZN8nlohmann16json_abi_v3_11_36detail11other_errorC2EiPKc
	.weak	_ZN8nlohmann16json_abi_v3_11_36detail11other_errorC1EiPKc
	.set	_ZN8nlohmann16json_abi_v3_11_36detail11other_errorC1EiPKc,_ZN8nlohmann16json_abi_v3_11_36detail11other_errorC2EiPKc
	.weak	_ZN8nlohmann16json_abi_v3_11_36detail12static_constINS1_10to_json_fnEE5valueE
	.section	.srodata._ZN8nlohmann16json_abi_v3_11_36detail12static_constINS1_10to_json_fnEE5valueE,"aG",@progbits,_ZN8nlohmann16json_abi_v3_11_36detail12static_constINS1_10to_json_fnEE5valueE,comdat
	.align	3
	.type	_ZN8nlohmann16json_abi_v3_11_36detail12static_constINS1_10to_json_fnEE5valueE, @object
	.size	_ZN8nlohmann16json_abi_v3_11_36detail12static_constINS1_10to_json_fnEE5valueE, 1
_ZN8nlohmann16json_abi_v3_11_36detail12static_constINS1_10to_json_fnEE5valueE:
	.zero	1
	.section	.text._ZN8nlohmann16json_abi_v3_11_36detail9dtoa_impl5diyfpC2Emi,"axG",@progbits,_ZN8nlohmann16json_abi_v3_11_36detail9dtoa_impl5diyfpC5Emi,comdat
	.align	1
	.weak	_ZN8nlohmann16json_abi_v3_11_36detail9dtoa_impl5diyfpC2Emi
	.type	_ZN8nlohmann16json_abi_v3_11_36detail9dtoa_impl5diyfpC2Emi, @function
_ZN8nlohmann16json_abi_v3_11_36detail9dtoa_impl5diyfpC2Emi:
.LFB6957:
	.cfi_startproc
	addi	sp,sp,-48
	.cfi_def_cfa_offset 48
	sd	ra,40(sp)
	sd	s0,32(sp)
	.cfi_offset 1, -8
	.cfi_offset 8, -16
	addi	s0,sp,48
	.cfi_def_cfa 8, 0
	sd	a0,-24(s0)
	sd	a1,-32(s0)
	mv	a5,a2
	sw	a5,-36(s0)
	ld	a5,-24(s0)
	ld	a4,-32(s0)
	sd	a4,0(a5)
	ld	a5,-24(s0)
	lw	a4,-36(s0)
	sw	a4,8(a5)
	nop
	ld	ra,40(sp)
	.cfi_restore 1
	ld	s0,32(sp)
	.cfi_restore 8
	.cfi_def_cfa 2, 48
	addi	sp,sp,48
	.cfi_def_cfa_offset 0
	jr	ra
	.cfi_endproc
.LFE6957:
	.size	_ZN8nlohmann16json_abi_v3_11_36detail9dtoa_impl5diyfpC2Emi, .-_ZN8nlohmann16json_abi_v3_11_36detail9dtoa_impl5diyfpC2Emi
	.weak	_ZN8nlohmann16json_abi_v3_11_36detail9dtoa_impl5diyfpC1Emi
	.set	_ZN8nlohmann16json_abi_v3_11_36detail9dtoa_impl5diyfpC1Emi,_ZN8nlohmann16json_abi_v3_11_36detail9dtoa_impl5diyfpC2Emi
	.section	.rodata
	.align	3
.LC4:
	.string	"x.e == y.e"
	.align	3
.LC5:
	.string	"static nlohmann::json_abi_v3_11_3::detail::dtoa_impl::diyfp nlohmann::json_abi_v3_11_3::detail::dtoa_impl::diyfp::sub(const nlohmann::json_abi_v3_11_3::detail::dtoa_impl::diyfp&, const nlohmann::json_abi_v3_11_3::detail::dtoa_impl::diyfp&)"
	.align	3
.LC6:
	.string	"json.hpp"
	.align	3
.LC7:
	.string	"x.f >= y.f"
	.section	.text._ZN8nlohmann16json_abi_v3_11_36detail9dtoa_impl5diyfp3subERKS3_S5_,"axG",@progbits,_ZN8nlohmann16json_abi_v3_11_36detail9dtoa_impl5diyfp3subERKS3_S5_,comdat
	.align	1
	.weak	_ZN8nlohmann16json_abi_v3_11_36detail9dtoa_impl5diyfp3subERKS3_S5_
	.type	_ZN8nlohmann16json_abi_v3_11_36detail9dtoa_impl5diyfp3subERKS3_S5_, @function
_ZN8nlohmann16json_abi_v3_11_36detail9dtoa_impl5diyfp3subERKS3_S5_:
.LFB6959:
	.cfi_startproc
	.cfi_personality 0x9b,DW.ref.__gxx_personality_v0
	.cfi_lsda 0x1b,.LLSDA6959
	addi	sp,sp,-80
	.cfi_def_cfa_offset 80
	sd	ra,72(sp)
	sd	s0,64(sp)
	sd	s2,56(sp)
	sd	s3,48(sp)
	.cfi_offset 1, -8
	.cfi_offset 8, -16
	.cfi_offset 18, -24
	.cfi_offset 19, -32
	addi	s0,sp,80
	.cfi_def_cfa 8, 0
	sd	a0,-72(s0)
	sd	a1,-80(s0)
	ld	a5,-72(s0)
	lw	a4,8(a5)
	ld	a5,-80(s0)
	lw	a5,8(a5)
	beq	a4,a5,.L110
	lui	a5,%hi(.LC4)
	addi	a3,a5,%lo(.LC4)
	lui	a5,%hi(.LC5)
	addi	a2,a5,%lo(.LC5)
	li	a5,16384
	addi	a1,a5,595
	lui	a5,%hi(.LC6)
	addi	a0,a5,%lo(.LC6)
	call	__assert_func
.L110:
	ld	a5,-72(s0)
	ld	a4,0(a5)
	ld	a5,-80(s0)
	ld	a5,0(a5)
	bgeu	a4,a5,.L111
	lui	a5,%hi(.LC7)
	addi	a3,a5,%lo(.LC7)
	lui	a5,%hi(.LC5)
	addi	a2,a5,%lo(.LC5)
	li	a5,16384
	addi	a1,a5,596
	lui	a5,%hi(.LC6)
	addi	a0,a5,%lo(.LC6)
	call	__assert_func
.L111:
	ld	a5,-72(s0)
	ld	a4,0(a5)
	ld	a5,-80(s0)
	ld	a5,0(a5)
	sub	a4,a4,a5
	ld	a5,-72(s0)
	lw	a3,8(a5)
	addi	a5,s0,-48
	mv	a2,a3
	mv	a1,a4
	mv	a0,a5
	call	_ZN8nlohmann16json_abi_v3_11_36detail9dtoa_impl5diyfpC1Emi
	ld	a5,-48(s0)
	sd	a5,-64(s0)
	ld	a5,-40(s0)
	sd	a5,-56(s0)
	ld	a4,-64(s0)
	ld	a5,-56(s0)
	mv	s2,a4
	mv	s3,a5
	mv	a4,s2
	mv	a5,s3
	mv	a0,a4
	mv	a1,a5
	ld	ra,72(sp)
	.cfi_restore 1
	ld	s0,64(sp)
	.cfi_restore 8
	.cfi_def_cfa 2, 80
	ld	s2,56(sp)
	.cfi_restore 18
	ld	s3,48(sp)
	.cfi_restore 19
	addi	sp,sp,80
	.cfi_def_cfa_offset 0
	jr	ra
	.cfi_endproc
.LFE6959:
	.section	.gcc_except_table._ZN8nlohmann16json_abi_v3_11_36detail9dtoa_impl5diyfp3subERKS3_S5_,"aG",@progbits,_ZN8nlohmann16json_abi_v3_11_36detail9dtoa_impl5diyfp3subERKS3_S5_,comdat
.LLSDA6959:
	.byte	0xff
	.byte	0xff
	.byte	0x1
	.uleb128 .LLSDACSE6959-.LLSDACSB6959
.LLSDACSB6959:
.LLSDACSE6959:
	.section	.text._ZN8nlohmann16json_abi_v3_11_36detail9dtoa_impl5diyfp3subERKS3_S5_,"axG",@progbits,_ZN8nlohmann16json_abi_v3_11_36detail9dtoa_impl5diyfp3subERKS3_S5_,comdat
	.size	_ZN8nlohmann16json_abi_v3_11_36detail9dtoa_impl5diyfp3subERKS3_S5_, .-_ZN8nlohmann16json_abi_v3_11_36detail9dtoa_impl5diyfp3subERKS3_S5_
	.section	.text._ZN8nlohmann16json_abi_v3_11_36detail9dtoa_impl5diyfp3mulERKS3_S5_,"axG",@progbits,_ZN8nlohmann16json_abi_v3_11_36detail9dtoa_impl5diyfp3mulERKS3_S5_,comdat
	.align	1
	.weak	_ZN8nlohmann16json_abi_v3_11_36detail9dtoa_impl5diyfp3mulERKS3_S5_
	.type	_ZN8nlohmann16json_abi_v3_11_36detail9dtoa_impl5diyfp3mulERKS3_S5_, @function
_ZN8nlohmann16json_abi_v3_11_36detail9dtoa_impl5diyfp3mulERKS3_S5_:
.LFB6960:
	.cfi_startproc
	addi	sp,sp,-208
	.cfi_def_cfa_offset 208
	sd	ra,200(sp)
	sd	s0,192(sp)
	sd	s2,184(sp)
	sd	s3,176(sp)
	.cfi_offset 1, -8
	.cfi_offset 8, -16
	.cfi_offset 18, -24
	.cfi_offset 19, -32
	addi	s0,sp,208
	.cfi_def_cfa 8, 0
	sd	a0,-200(s0)
	sd	a1,-208(s0)
	ld	a5,-200(s0)
	ld	a5,0(a5)
	slli	a5,a5,32
	srli	a5,a5,32
	sd	a5,-40(s0)
	ld	a5,-200(s0)
	ld	a5,0(a5)
	srli	a5,a5,32
	sd	a5,-48(s0)
	ld	a5,-208(s0)
	ld	a5,0(a5)
	slli	a5,a5,32
	srli	a5,a5,32
	sd	a5,-56(s0)
	ld	a5,-208(s0)
	ld	a5,0(a5)
	srli	a5,a5,32
	sd	a5,-64(s0)
	ld	a4,-40(s0)
	ld	a5,-56(s0)
	mul	a5,a4,a5
	sd	a5,-72(s0)
	ld	a4,-40(s0)
	ld	a5,-64(s0)
	mul	a5,a4,a5
	sd	a5,-80(s0)
	ld	a4,-48(s0)
	ld	a5,-56(s0)
	mul	a5,a4,a5
	sd	a5,-88(s0)
	ld	a4,-48(s0)
	ld	a5,-64(s0)
	mul	a5,a4,a5
	sd	a5,-96(s0)
	ld	a5,-72(s0)
	srli	a5,a5,32
	sd	a5,-104(s0)
	ld	a5,-80(s0)
	slli	a5,a5,32
	srli	a5,a5,32
	sd	a5,-112(s0)
	ld	a5,-80(s0)
	srli	a5,a5,32
	sd	a5,-120(s0)
	ld	a5,-88(s0)
	slli	a5,a5,32
	srli	a5,a5,32
	sd	a5,-128(s0)
	ld	a5,-88(s0)
	srli	a5,a5,32
	sd	a5,-136(s0)
	ld	a4,-104(s0)
	ld	a5,-112(s0)
	add	a5,a4,a5
	ld	a4,-128(s0)
	add	a5,a4,a5
	sd	a5,-144(s0)
	ld	a4,-144(s0)
	li	a5,1
	slli	a5,a5,31
	add	a5,a4,a5
	sd	a5,-144(s0)
	ld	a4,-96(s0)
	ld	a5,-136(s0)
	add	a4,a4,a5
	ld	a5,-120(s0)
	add	a4,a4,a5
	ld	a5,-144(s0)
	srli	a5,a5,32
	add	a5,a4,a5
	sd	a5,-152(s0)
	ld	a5,-200(s0)
	lw	a4,8(a5)
	ld	a5,-208(s0)
	lw	a5,8(a5)
	addw	a5,a4,a5
	sext.w	a5,a5
	addiw	a5,a5,64
	sext.w	a4,a5
	addi	a5,s0,-168
	mv	a2,a4
	ld	a1,-152(s0)
	mv	a0,a5
	call	_ZN8nlohmann16json_abi_v3_11_36detail9dtoa_impl5diyfpC1Emi
	ld	a5,-168(s0)
	sd	a5,-184(s0)
	ld	a5,-160(s0)
	sd	a5,-176(s0)
	ld	a4,-184(s0)
	ld	a5,-176(s0)
	mv	s2,a4
	mv	s3,a5
	mv	a4,s2
	mv	a5,s3
	mv	a0,a4
	mv	a1,a5
	ld	ra,200(sp)
	.cfi_restore 1
	ld	s0,192(sp)
	.cfi_restore 8
	.cfi_def_cfa 2, 208
	ld	s2,184(sp)
	.cfi_restore 18
	ld	s3,176(sp)
	.cfi_restore 19
	addi	sp,sp,208
	.cfi_def_cfa_offset 0
	jr	ra
	.cfi_endproc
.LFE6960:
	.size	_ZN8nlohmann16json_abi_v3_11_36detail9dtoa_impl5diyfp3mulERKS3_S5_, .-_ZN8nlohmann16json_abi_v3_11_36detail9dtoa_impl5diyfp3mulERKS3_S5_
	.section	.rodata
	.align	3
.LC8:
	.string	"x.f != 0"
	.align	3
.LC9:
	.string	"static nlohmann::json_abi_v3_11_3::detail::dtoa_impl::diyfp nlohmann::json_abi_v3_11_3::detail::dtoa_impl::diyfp::normalize(nlohmann::json_abi_v3_11_3::detail::dtoa_impl::diyfp)"
	.section	.text._ZN8nlohmann16json_abi_v3_11_36detail9dtoa_impl5diyfp9normalizeES3_,"axG",@progbits,_ZN8nlohmann16json_abi_v3_11_36detail9dtoa_impl5diyfp9normalizeES3_,comdat
	.align	1
	.weak	_ZN8nlohmann16json_abi_v3_11_36detail9dtoa_impl5diyfp9normalizeES3_
	.type	_ZN8nlohmann16json_abi_v3_11_36detail9dtoa_impl5diyfp9normalizeES3_, @function
_ZN8nlohmann16json_abi_v3_11_36detail9dtoa_impl5diyfp9normalizeES3_:
.LFB6961:
	.cfi_startproc
	.cfi_personality 0x9b,DW.ref.__gxx_personality_v0
	.cfi_lsda 0x1b,.LLSDA6961
	addi	sp,sp,-48
	.cfi_def_cfa_offset 48
	sd	ra,40(sp)
	sd	s0,32(sp)
	.cfi_offset 1, -8
	.cfi_offset 8, -16
	addi	s0,sp,48
	.cfi_def_cfa 8, 0
	sd	a0,-48(s0)
	sd	a1,-40(s0)
	ld	a5,-48(s0)
	bne	a5,zero,.L117
	lui	a5,%hi(.LC8)
	addi	a3,a5,%lo(.LC8)
	lui	a5,%hi(.LC9)
	addi	a2,a5,%lo(.LC9)
	li	a5,16384
	addi	a1,a5,672
	lui	a5,%hi(.LC6)
	addi	a0,a5,%lo(.LC6)
	call	__assert_func
.L118:
	ld	a5,-48(s0)
	slli	a5,a5,1
	sd	a5,-48(s0)
	lw	a5,-40(s0)
	addiw	a5,a5,-1
	sext.w	a5,a5
	sw	a5,-40(s0)
.L117:
	ld	a5,-48(s0)
	bge	a5,zero,.L118
	ld	a5,-48(s0)
	sd	a5,-32(s0)
	ld	a5,-40(s0)
	sd	a5,-24(s0)
	ld	a4,-32(s0)
	ld	a5,-24(s0)
	mv	a2,a4
	mv	a3,a5
	mv	a4,a2
	mv	a5,a3
	mv	a0,a4
	mv	a1,a5
	ld	ra,40(sp)
	.cfi_restore 1
	ld	s0,32(sp)
	.cfi_restore 8
	.cfi_def_cfa 2, 48
	addi	sp,sp,48
	.cfi_def_cfa_offset 0
	jr	ra
	.cfi_endproc
.LFE6961:
	.section	.gcc_except_table._ZN8nlohmann16json_abi_v3_11_36detail9dtoa_impl5diyfp9normalizeES3_,"aG",@progbits,_ZN8nlohmann16json_abi_v3_11_36detail9dtoa_impl5diyfp9normalizeES3_,comdat
.LLSDA6961:
	.byte	0xff
	.byte	0xff
	.byte	0x1
	.uleb128 .LLSDACSE6961-.LLSDACSB6961
.LLSDACSB6961:
.LLSDACSE6961:
	.section	.text._ZN8nlohmann16json_abi_v3_11_36detail9dtoa_impl5diyfp9normalizeES3_,"axG",@progbits,_ZN8nlohmann16json_abi_v3_11_36detail9dtoa_impl5diyfp9normalizeES3_,comdat
	.size	_ZN8nlohmann16json_abi_v3_11_36detail9dtoa_impl5diyfp9normalizeES3_, .-_ZN8nlohmann16json_abi_v3_11_36detail9dtoa_impl5diyfp9normalizeES3_
	.section	.rodata
	.align	3
.LC10:
	.string	"delta >= 0"
	.align	3
.LC11:
	.string	"static nlohmann::json_abi_v3_11_3::detail::dtoa_impl::diyfp nlohmann::json_abi_v3_11_3::detail::dtoa_impl::diyfp::normalize_to(const nlohmann::json_abi_v3_11_3::detail::dtoa_impl::diyfp&, int)"
	.align	3
.LC12:
	.string	"((x.f << delta) >> delta) == x.f"
	.section	.text._ZN8nlohmann16json_abi_v3_11_36detail9dtoa_impl5diyfp12normalize_toERKS3_i,"axG",@progbits,_ZN8nlohmann16json_abi_v3_11_36detail9dtoa_impl5diyfp12normalize_toERKS3_i,comdat
	.align	1
	.weak	_ZN8nlohmann16json_abi_v3_11_36detail9dtoa_impl5diyfp12normalize_toERKS3_i
	.type	_ZN8nlohmann16json_abi_v3_11_36detail9dtoa_impl5diyfp12normalize_toERKS3_i, @function
_ZN8nlohmann16json_abi_v3_11_36detail9dtoa_impl5diyfp12normalize_toERKS3_i:
.LFB6962:
	.cfi_startproc
	.cfi_personality 0x9b,DW.ref.__gxx_personality_v0
	.cfi_lsda 0x1b,.LLSDA6962
	addi	sp,sp,-96
	.cfi_def_cfa_offset 96
	sd	ra,88(sp)
	sd	s0,80(sp)
	sd	s2,72(sp)
	sd	s3,64(sp)
	.cfi_offset 1, -8
	.cfi_offset 8, -16
	.cfi_offset 18, -24
	.cfi_offset 19, -32
	addi	s0,sp,96
	.cfi_def_cfa 8, 0
	sd	a0,-88(s0)
	mv	a5,a1
	sw	a5,-92(s0)
	ld	a5,-88(s0)
	lw	a5,8(a5)
	lw	a4,-92(s0)
	subw	a5,a5,a4
	sw	a5,-36(s0)
	lw	a5,-36(s0)
	sext.w	a5,a5
	bge	a5,zero,.L121
	lui	a5,%hi(.LC10)
	addi	a3,a5,%lo(.LC10)
	lui	a5,%hi(.LC11)
	addi	a2,a5,%lo(.LC11)
	li	a5,16384
	addi	a1,a5,691
	lui	a5,%hi(.LC6)
	addi	a0,a5,%lo(.LC6)
	call	__assert_func
.L121:
	ld	a5,-88(s0)
	ld	a5,0(a5)
	lw	a4,-36(s0)
	sll	a5,a5,a4
	lw	a4,-36(s0)
	srl	a4,a5,a4
	ld	a5,-88(s0)
	ld	a5,0(a5)
	beq	a4,a5,.L122
	lui	a5,%hi(.LC12)
	addi	a3,a5,%lo(.LC12)
	lui	a5,%hi(.LC11)
	addi	a2,a5,%lo(.LC11)
	li	a5,16384
	addi	a1,a5,692
	lui	a5,%hi(.LC6)
	addi	a0,a5,%lo(.LC6)
	call	__assert_func
.L122:
	ld	a5,-88(s0)
	ld	a5,0(a5)
	lw	a4,-36(s0)
	sll	a4,a5,a4
	lw	a3,-92(s0)
	addi	a5,s0,-56
	mv	a2,a3
	mv	a1,a4
	mv	a0,a5
	call	_ZN8nlohmann16json_abi_v3_11_36detail9dtoa_impl5diyfpC1Emi
	ld	a5,-56(s0)
	sd	a5,-72(s0)
	ld	a5,-48(s0)
	sd	a5,-64(s0)
	ld	a4,-72(s0)
	ld	a5,-64(s0)
	mv	s2,a4
	mv	s3,a5
	mv	a4,s2
	mv	a5,s3
	mv	a0,a4
	mv	a1,a5
	ld	ra,88(sp)
	.cfi_restore 1
	ld	s0,80(sp)
	.cfi_restore 8
	.cfi_def_cfa 2, 96
	ld	s2,72(sp)
	.cfi_restore 18
	ld	s3,64(sp)
	.cfi_restore 19
	addi	sp,sp,96
	.cfi_def_cfa_offset 0
	jr	ra
	.cfi_endproc
.LFE6962:
	.section	.gcc_except_table._ZN8nlohmann16json_abi_v3_11_36detail9dtoa_impl5diyfp12normalize_toERKS3_i,"aG",@progbits,_ZN8nlohmann16json_abi_v3_11_36detail9dtoa_impl5diyfp12normalize_toERKS3_i,comdat
.LLSDA6962:
	.byte	0xff
	.byte	0xff
	.byte	0x1
	.uleb128 .LLSDACSE6962-.LLSDACSB6962
.LLSDACSB6962:
.LLSDACSE6962:
	.section	.text._ZN8nlohmann16json_abi_v3_11_36detail9dtoa_impl5diyfp12normalize_toERKS3_i,"axG",@progbits,_ZN8nlohmann16json_abi_v3_11_36detail9dtoa_impl5diyfp12normalize_toERKS3_i,comdat
	.size	_ZN8nlohmann16json_abi_v3_11_36detail9dtoa_impl5diyfp12normalize_toERKS3_i, .-_ZN8nlohmann16json_abi_v3_11_36detail9dtoa_impl5diyfp12normalize_toERKS3_i
	.section	.srodata,"a"
	.align	2
	.type	_ZN8nlohmann16json_abi_v3_11_36detail9dtoa_implL6kAlphaE, @object
	.size	_ZN8nlohmann16json_abi_v3_11_36detail9dtoa_implL6kAlphaE, 4
_ZN8nlohmann16json_abi_v3_11_36detail9dtoa_implL6kAlphaE:
	.word	-60
	.align	2
	.type	_ZN8nlohmann16json_abi_v3_11_36detail9dtoa_implL6kGammaE, @object
	.size	_ZN8nlohmann16json_abi_v3_11_36detail9dtoa_implL6kGammaE, 4
_ZN8nlohmann16json_abi_v3_11_36detail9dtoa_implL6kGammaE:
	.word	-32
	.weak	_ZZN8nlohmann16json_abi_v3_11_36detail9dtoa_impl36get_cached_power_for_binary_exponentEiE13kCachedPowers
	.section	.rodata._ZZN8nlohmann16json_abi_v3_11_36detail9dtoa_impl36get_cached_power_for_binary_exponentEiE13kCachedPowers,"aG",@progbits,_ZZN8nlohmann16json_abi_v3_11_36detail9dtoa_impl36get_cached_power_for_binary_exponentEiE13kCachedPowers,comdat
	.align	3
	.type	_ZZN8nlohmann16json_abi_v3_11_36detail9dtoa_impl36get_cached_power_for_binary_exponentEiE13kCachedPowers, @object
	.size	_ZZN8nlohmann16json_abi_v3_11_36detail9dtoa_impl36get_cached_power_for_binary_exponentEiE13kCachedPowers, 1264
_ZZN8nlohmann16json_abi_v3_11_36detail9dtoa_impl36get_cached_power_for_binary_exponentEiE13kCachedPowers:
	.dword	-6093090917745768758
	.word	-1060
	.word	-300
	.dword	-38366372719436721
	.word	-1034
	.word	-292
	.dword	-4731433901725329908
	.word	-1007
	.word	-284
	.dword	-8228041688891786180
	.word	-980
	.word	-276
	.dword	-3219690930897053053
	.word	-954
	.word	-268
	.dword	-7101705404292871755
	.word	-927
	.word	-260
	.dword	-1541319077368263733
	.word	-901
	.word	-252
	.dword	-5851220927660403859
	.word	-874
	.word	-244
	.dword	-9062348037703676329
	.word	-847
	.word	-236
	.dword	-4462904269766699465
	.word	-821
	.word	-228
	.dword	-8027971522334779313
	.word	-794
	.word	-220
	.dword	-2921563150702462265
	.word	-768
	.word	-212
	.dword	-6879582898840692748
	.word	-741
	.word	-204
	.dword	-1210330751515841307
	.word	-715
	.word	-196
	.dword	-5604615407819967858
	.word	-688
	.word	-188
	.dword	-8878612607581929669
	.word	-661
	.word	-180
	.dword	-4189117143640191558
	.word	-635
	.word	-172
	.dword	-7823984217374209642
	.word	-608
	.word	-164
	.dword	-2617598379430861436
	.word	-582
	.word	-156
	.dword	-6653111496142234890
	.word	-555
	.word	-148
	.dword	-872862063775190746
	.word	-529
	.word	-140
	.dword	-5353181642124984136
	.word	-502
	.word	-132
	.dword	-8691279853972075893
	.word	-475
	.word	-124
	.dword	-3909969587797413805
	.word	-449
	.word	-116
	.dword	-7616003081050118571
	.word	-422
	.word	-108
	.dword	-2307682335666372931
	.word	-396
	.word	-100
	.dword	-6422206049907525489
	.word	-369
	.word	-92
	.dword	-528786136287117932
	.word	-343
	.word	-84
	.dword	-5096825099203863601
	.word	-316
	.word	-76
	.dword	-8500279345513818773
	.word	-289
	.word	-68
	.dword	-3625356651333078602
	.word	-263
	.word	-60
	.dword	-7403949918844649556
	.word	-236
	.word	-52
	.dword	-1991698500497491194
	.word	-210
	.word	-44
	.dword	-6186779746782440749
	.word	-183
	.word	-36
	.dword	-177973607073265138
	.word	-157
	.word	-28
	.dword	-4835449396872013077
	.word	-130
	.word	-20
	.dword	-8305539271883716404
	.word	-103
	.word	-12
	.dword	-3335171328526686932
	.word	-77
	.word	-4
	.dword	-7187745005283311616
	.word	-50
	.word	4
	.dword	-1669528073709551616
	.word	-24
	.word	12
	.dword	-5946744073709551616
	.word	3
	.word	20
	.dword	-9133518327554766460
	.word	30
	.word	28
	.dword	-4568956265895094861
	.word	56
	.word	36
	.dword	-8106986416796705680
	.word	83
	.word	44
	.dword	-3039304518611664792
	.word	109
	.word	52
	.dword	-6967307053960650171
	.word	136
	.word	60
	.dword	-1341049929119499481
	.word	162
	.word	68
	.dword	-5702008784649933400
	.word	189
	.word	76
	.dword	-8951176327949752869
	.word	216
	.word	84
	.dword	-4297245513042813542
	.word	242
	.word	92
	.dword	-7904546130479028392
	.word	269
	.word	100
	.dword	-2737644984756826646
	.word	295
	.word	108
	.dword	-6742553186979055798
	.word	322
	.word	116
	.dword	-1006140569036166267
	.word	348
	.word	124
	.dword	-5452481866653427593
	.word	375
	.word	132
	.dword	-8765264286586255934
	.word	402
	.word	140
	.dword	-4020214983419339459
	.word	428
	.word	148
	.dword	-7698142301602209613
	.word	455
	.word	156
	.dword	-2430079312244744221
	.word	481
	.word	164
	.dword	-6513398903789220827
	.word	508
	.word	172
	.dword	-664674077828931748
	.word	534
	.word	180
	.dword	-5198069505264599346
	.word	561
	.word	188
	.dword	-8575712306248138270
	.word	588
	.word	196
	.dword	-3737760522056206171
	.word	614
	.word	204
	.dword	-7487697328667536417
	.word	641
	.word	212
	.dword	-2116491865831296966
	.word	667
	.word	220
	.dword	-6279758049420528746
	.word	694
	.word	228
	.dword	-316522074587315140
	.word	720
	.word	236
	.dword	-4938676049251384304
	.word	747
	.word	244
	.dword	-8382449121214030822
	.word	774
	.word	252
	.dword	-3449775934753242068
	.word	800
	.word	260
	.dword	-7273132090830278359
	.word	827
	.word	268
	.dword	-1796764746270372707
	.word	853
	.word	276
	.dword	-6041542782089432023
	.word	880
	.word	284
	.dword	-9204148869281624187
	.word	907
	.word	292
	.dword	-4674203974643163859
	.word	933
	.word	300
	.dword	-8185402070463610993
	.word	960
	.word	308
	.dword	-3156152948152813503
	.word	986
	.word	316
	.dword	-7054365918152680535
	.word	1013
	.word	324
	.section	.rodata
	.align	3
.LC13:
	.string	"e >= -1500"
	.align	3
.LC14:
	.string	"nlohmann::json_abi_v3_11_3::detail::dtoa_impl::cached_power nlohmann::json_abi_v3_11_3::detail::dtoa_impl::get_cached_power_for_binary_exponent(int)"
	.align	3
.LC15:
	.string	"e <= 1500"
	.align	3
.LC16:
	.string	"index >= 0"
	.align	3
.LC17:
	.string	"static_cast<std::size_t>(index) < kCachedPowers.size()"
	.align	3
.LC18:
	.string	"kAlpha <= cached.e + e + 64"
	.align	3
.LC19:
	.string	"kGamma >= cached.e + e + 64"
	.section	.text._ZN8nlohmann16json_abi_v3_11_36detail9dtoa_impl36get_cached_power_for_binary_exponentEi,"axG",@progbits,_ZN8nlohmann16json_abi_v3_11_36detail9dtoa_impl36get_cached_power_for_binary_exponentEi,comdat
	.align	1
	.weak	_ZN8nlohmann16json_abi_v3_11_36detail9dtoa_impl36get_cached_power_for_binary_exponentEi
	.type	_ZN8nlohmann16json_abi_v3_11_36detail9dtoa_impl36get_cached_power_for_binary_exponentEi, @function
_ZN8nlohmann16json_abi_v3_11_36detail9dtoa_impl36get_cached_power_for_binary_exponentEi:
.LFB6964:
	.cfi_startproc
	addi	sp,sp,-112
	.cfi_def_cfa_offset 112
	sd	ra,104(sp)
	sd	s0,96(sp)
	sd	s2,88(sp)
	sd	s3,80(sp)
	.cfi_offset 1, -8
	.cfi_offset 8, -16
	.cfi_offset 18, -24
	.cfi_offset 19, -32
	addi	s0,sp,112
	.cfi_def_cfa 8, 0
	mv	a5,a0
	sw	a5,-100(s0)
	li	a5,-300
	sw	a5,-36(s0)
	li	a5,8
	sw	a5,-40(s0)
	lw	a5,-100(s0)
	sext.w	a4,a5
	li	a5,-1500
	bge	a4,a5,.L125
	lui	a5,%hi(.LC13)
	addi	a3,a5,%lo(.LC13)
	lui	a5,%hi(.LC14)
	addi	a2,a5,%lo(.LC14)
	li	a5,16384
	addi	a1,a5,995
	lui	a5,%hi(.LC6)
	addi	a0,a5,%lo(.LC6)
	call	__assert_func
.L125:
	lw	a5,-100(s0)
	sext.w	a4,a5
	li	a5,1500
	ble	a4,a5,.L126
	lui	a5,%hi(.LC15)
	addi	a3,a5,%lo(.LC15)
	lui	a5,%hi(.LC14)
	addi	a2,a5,%lo(.LC14)
	li	a5,16384
	addi	a1,a5,996
	lui	a5,%hi(.LC6)
	addi	a0,a5,%lo(.LC6)
	call	__assert_func
.L126:
	li	a5,-61
	lw	a4,-100(s0)
	subw	a5,a5,a4
	sw	a5,-44(s0)
	lw	a5,-44(s0)
	mv	a4,a5
	li	a5,77824
	addiw	a5,a5,1089
	mulw	a5,a4,a5
	sext.w	a5,a5
	sraiw	a4,a5,31
	srliw	a4,a4,14
	addw	a5,a4,a5
	sraiw	a5,a5,18
	sext.w	a4,a5
	lw	a5,-44(s0)
	sext.w	a5,a5
	sgt	a5,a5,zero
	andi	a5,a5,0xff
	sext.w	a5,a5
	addw	a5,a4,a5
	sw	a5,-48(s0)
	lw	a5,-48(s0)
	addiw	a5,a5,307
	sext.w	a5,a5
	sraiw	a4,a5,31
	srliw	a4,a4,29
	addw	a5,a4,a5
	sraiw	a5,a5,3
	sw	a5,-52(s0)
	lw	a5,-52(s0)
	sext.w	a5,a5
	bge	a5,zero,.L127
	lui	a5,%hi(.LC16)
	addi	a3,a5,%lo(.LC16)
	lui	a5,%hi(.LC14)
	addi	a2,a5,%lo(.LC14)
	li	a5,16384
	addi	a1,a5,1001
	lui	a5,%hi(.LC6)
	addi	a0,a5,%lo(.LC6)
	call	__assert_func
.L127:
	lw	a4,-52(s0)
	li	a5,79
	bltu	a4,a5,.L129
	lui	a5,%hi(.LC17)
	addi	a3,a5,%lo(.LC17)
	lui	a5,%hi(.LC14)
	addi	a2,a5,%lo(.LC14)
	li	a5,16384
	addi	a1,a5,1002
	lui	a5,%hi(.LC6)
	addi	a0,a5,%lo(.LC6)
	call	__assert_func
.L129:
	lw	a5,-52(s0)
	mv	a1,a5
	lui	a5,%hi(_ZZN8nlohmann16json_abi_v3_11_36detail9dtoa_impl36get_cached_power_for_binary_exponentEiE13kCachedPowers)
	addi	a0,a5,%lo(_ZZN8nlohmann16json_abi_v3_11_36detail9dtoa_impl36get_cached_power_for_binary_exponentEiE13kCachedPowers)
	call	_ZNKSt5arrayIN8nlohmann16json_abi_v3_11_36detail9dtoa_impl12cached_powerELm79EEixEm
	mv	a5,a0
	ld	a4,0(a5)
	sd	a4,-88(s0)
	ld	a5,8(a5)
	sd	a5,-80(s0)
	lw	a5,-80(s0)
	lw	a4,-100(s0)
	addw	a5,a4,a5
	sext.w	a4,a5
	li	a5,-124
	bge	a4,a5,.L130
	lui	a5,%hi(.LC18)
	addi	a3,a5,%lo(.LC18)
	lui	a5,%hi(.LC14)
	addi	a2,a5,%lo(.LC14)
	li	a5,16384
	addi	a1,a5,1005
	lui	a5,%hi(.LC6)
	addi	a0,a5,%lo(.LC6)
	call	__assert_func
.L130:
	lw	a5,-80(s0)
	lw	a4,-100(s0)
	addw	a5,a4,a5
	sext.w	a4,a5
	li	a5,-95
	blt	a4,a5,.L131
	lui	a5,%hi(.LC19)
	addi	a3,a5,%lo(.LC19)
	lui	a5,%hi(.LC14)
	addi	a2,a5,%lo(.LC14)
	li	a5,16384
	addi	a1,a5,1006
	lui	a5,%hi(.LC6)
	addi	a0,a5,%lo(.LC6)
	call	__assert_func
.L131:
	ld	a5,-88(s0)
	sd	a5,-72(s0)
	ld	a5,-80(s0)
	sd	a5,-64(s0)
	ld	a4,-72(s0)
	ld	a5,-64(s0)
	mv	s2,a4
	mv	s3,a5
	mv	a4,s2
	mv	a5,s3
	mv	a0,a4
	mv	a1,a5
	ld	ra,104(sp)
	.cfi_restore 1
	ld	s0,96(sp)
	.cfi_restore 8
	.cfi_def_cfa 2, 112
	ld	s2,88(sp)
	.cfi_restore 18
	ld	s3,80(sp)
	.cfi_restore 19
	addi	sp,sp,112
	.cfi_def_cfa_offset 0
	jr	ra
	.cfi_endproc
.LFE6964:
	.size	_ZN8nlohmann16json_abi_v3_11_36detail9dtoa_impl36get_cached_power_for_binary_exponentEi, .-_ZN8nlohmann16json_abi_v3_11_36detail9dtoa_impl36get_cached_power_for_binary_exponentEi
	.section	.text._ZN8nlohmann16json_abi_v3_11_36detail9dtoa_impl18find_largest_pow10EjRj,"axG",@progbits,_ZN8nlohmann16json_abi_v3_11_36detail9dtoa_impl18find_largest_pow10EjRj,comdat
	.align	1
	.weak	_ZN8nlohmann16json_abi_v3_11_36detail9dtoa_impl18find_largest_pow10EjRj
	.type	_ZN8nlohmann16json_abi_v3_11_36detail9dtoa_impl18find_largest_pow10EjRj, @function
_ZN8nlohmann16json_abi_v3_11_36detail9dtoa_impl18find_largest_pow10EjRj:
.LFB6965:
	.cfi_startproc
	addi	sp,sp,-32
	.cfi_def_cfa_offset 32
	sd	ra,24(sp)
	sd	s0,16(sp)
	.cfi_offset 1, -8
	.cfi_offset 8, -16
	addi	s0,sp,32
	.cfi_def_cfa 8, 0
	mv	a5,a0
	sd	a1,-32(s0)
	sw	a5,-20(s0)
	lw	a5,-20(s0)
	sext.w	a4,a5
	li	a5,1000001536
	addi	a5,a5,-1537
	bleu	a4,a5,.L134
	ld	a5,-32(s0)
	li	a4,1000001536
	addi	a4,a4,-1536
	sw	a4,0(a5)
	li	a5,10
	j	.L135
.L134:
	lw	a5,-20(s0)
	sext.w	a4,a5
	li	a5,99999744
	addi	a5,a5,255
	bleu	a4,a5,.L136
	ld	a5,-32(s0)
	li	a4,99999744
	addi	a4,a4,256
	sw	a4,0(a5)
	li	a5,9
	j	.L135
.L136:
	lw	a5,-20(s0)
	sext.w	a4,a5
	li	a5,9998336
	addi	a5,a5,1663
	bleu	a4,a5,.L137
	ld	a5,-32(s0)
	li	a4,9998336
	addi	a4,a4,1664
	sw	a4,0(a5)
	li	a5,8
	j	.L135
.L137:
	lw	a5,-20(s0)
	sext.w	a4,a5
	li	a5,999424
	addi	a5,a5,575
	bleu	a4,a5,.L138
	ld	a5,-32(s0)
	li	a4,999424
	addi	a4,a4,576
	sw	a4,0(a5)
	li	a5,7
	j	.L135
.L138:
	lw	a5,-20(s0)
	sext.w	a4,a5
	li	a5,98304
	addi	a5,a5,1695
	bleu	a4,a5,.L139
	ld	a5,-32(s0)
	li	a4,98304
	addi	a4,a4,1696
	sw	a4,0(a5)
	li	a5,6
	j	.L135
.L139:
	lw	a5,-20(s0)
	sext.w	a4,a5
	li	a5,8192
	addi	a5,a5,1807
	bleu	a4,a5,.L140
	ld	a5,-32(s0)
	li	a4,8192
	addi	a4,a4,1808
	sw	a4,0(a5)
	li	a5,5
	j	.L135
.L140:
	lw	a5,-20(s0)
	sext.w	a4,a5
	li	a5,999
	bleu	a4,a5,.L141
	ld	a5,-32(s0)
	li	a4,1000
	sw	a4,0(a5)
	li	a5,4
	j	.L135
.L141:
	lw	a5,-20(s0)
	sext.w	a4,a5
	li	a5,99
	bleu	a4,a5,.L142
	ld	a5,-32(s0)
	li	a4,100
	sw	a4,0(a5)
	li	a5,3
	j	.L135
.L142:
	lw	a5,-20(s0)
	sext.w	a4,a5
	li	a5,9
	bleu	a4,a5,.L143
	ld	a5,-32(s0)
	li	a4,10
	sw	a4,0(a5)
	li	a5,2
	j	.L135
.L143:
	ld	a5,-32(s0)
	li	a4,1
	sw	a4,0(a5)
	li	a5,1
.L135:
	mv	a0,a5
	ld	ra,24(sp)
	.cfi_restore 1
	ld	s0,16(sp)
	.cfi_restore 8
	.cfi_def_cfa 2, 32
	addi	sp,sp,32
	.cfi_def_cfa_offset 0
	jr	ra
	.cfi_endproc
.LFE6965:
	.size	_ZN8nlohmann16json_abi_v3_11_36detail9dtoa_impl18find_largest_pow10EjRj, .-_ZN8nlohmann16json_abi_v3_11_36detail9dtoa_impl18find_largest_pow10EjRj
	.section	.rodata
	.align	3
.LC20:
	.string	"len >= 1"
	.align	3
.LC21:
	.string	"void nlohmann::json_abi_v3_11_3::detail::dtoa_impl::grisu2_round(char*, int, uint64_t, uint64_t, uint64_t, uint64_t)"
	.align	3
.LC22:
	.string	"dist <= delta"
	.align	3
.LC23:
	.string	"rest <= delta"
	.align	3
.LC24:
	.string	"ten_k > 0"
	.align	3
.LC25:
	.string	"buf[len - 1] != '0'"
	.section	.text._ZN8nlohmann16json_abi_v3_11_36detail9dtoa_impl12grisu2_roundEPcimmmm,"axG",@progbits,_ZN8nlohmann16json_abi_v3_11_36detail9dtoa_impl12grisu2_roundEPcimmmm,comdat
	.align	1
	.weak	_ZN8nlohmann16json_abi_v3_11_36detail9dtoa_impl12grisu2_roundEPcimmmm
	.type	_ZN8nlohmann16json_abi_v3_11_36detail9dtoa_impl12grisu2_roundEPcimmmm, @function
_ZN8nlohmann16json_abi_v3_11_36detail9dtoa_impl12grisu2_roundEPcimmmm:
.LFB6966:
	.cfi_startproc
	addi	sp,sp,-64
	.cfi_def_cfa_offset 64
	sd	ra,56(sp)
	sd	s0,48(sp)
	.cfi_offset 1, -8
	.cfi_offset 8, -16
	addi	s0,sp,64
	.cfi_def_cfa 8, 0
	sd	a0,-24(s0)
	sd	a2,-40(s0)
	sd	a3,-48(s0)
	sd	a4,-56(s0)
	sd	a5,-64(s0)
	mv	a5,a1
	sw	a5,-28(s0)
	lw	a5,-28(s0)
	sext.w	a5,a5
	bgt	a5,zero,.L145
	lui	a5,%hi(.LC20)
	addi	a3,a5,%lo(.LC20)
	lui	a5,%hi(.LC21)
	addi	a2,a5,%lo(.LC21)
	li	a5,16384
	addi	a1,a5,1072
	lui	a5,%hi(.LC6)
	addi	a0,a5,%lo(.LC6)
	call	__assert_func
.L145:
	ld	a4,-40(s0)
	ld	a5,-48(s0)
	bleu	a4,a5,.L146
	lui	a5,%hi(.LC22)
	addi	a3,a5,%lo(.LC22)
	lui	a5,%hi(.LC21)
	addi	a2,a5,%lo(.LC21)
	li	a5,16384
	addi	a1,a5,1073
	lui	a5,%hi(.LC6)
	addi	a0,a5,%lo(.LC6)
	call	__assert_func
.L146:
	ld	a4,-56(s0)
	ld	a5,-48(s0)
	bleu	a4,a5,.L147
	lui	a5,%hi(.LC23)
	addi	a3,a5,%lo(.LC23)
	lui	a5,%hi(.LC21)
	addi	a2,a5,%lo(.LC21)
	li	a5,16384
	addi	a1,a5,1074
	lui	a5,%hi(.LC6)
	addi	a0,a5,%lo(.LC6)
	call	__assert_func
.L147:
	ld	a5,-64(s0)
	bne	a5,zero,.L149
	lui	a5,%hi(.LC24)
	addi	a3,a5,%lo(.LC24)
	lui	a5,%hi(.LC21)
	addi	a2,a5,%lo(.LC21)
	li	a5,16384
	addi	a1,a5,1075
	lui	a5,%hi(.LC6)
	addi	a0,a5,%lo(.LC6)
	call	__assert_func
.L152:
	lw	a5,-28(s0)
	addi	a5,a5,-1
	ld	a4,-24(s0)
	add	a5,a4,a5
	lbu	a5,0(a5)
	mv	a4,a5
	li	a5,48
	bne	a4,a5,.L150
	lui	a5,%hi(.LC25)
	addi	a3,a5,%lo(.LC25)
	lui	a5,%hi(.LC21)
	addi	a2,a5,%lo(.LC21)
	li	a5,16384
	addi	a1,a5,1100
	lui	a5,%hi(.LC6)
	addi	a0,a5,%lo(.LC6)
	call	__assert_func
.L150:
	lw	a5,-28(s0)
	addi	a5,a5,-1
	ld	a4,-24(s0)
	add	a5,a4,a5
	lbu	a4,0(a5)
	addiw	a4,a4,-1
	andi	a4,a4,0xff
	sb	a4,0(a5)
	ld	a4,-56(s0)
	ld	a5,-64(s0)
	add	a5,a4,a5
	sd	a5,-56(s0)
.L149:
	ld	a4,-56(s0)
	ld	a5,-40(s0)
	bgeu	a4,a5,.L153
	ld	a4,-48(s0)
	ld	a5,-56(s0)
	sub	a5,a4,a5
	ld	a4,-64(s0)
	bgtu	a4,a5,.L153
	ld	a4,-56(s0)
	ld	a5,-64(s0)
	add	a5,a4,a5
	ld	a4,-40(s0)
	bgtu	a4,a5,.L152
	ld	a4,-40(s0)
	ld	a5,-56(s0)
	sub	a4,a4,a5
	ld	a3,-56(s0)
	ld	a5,-64(s0)
	add	a3,a3,a5
	ld	a5,-40(s0)
	sub	a5,a3,a5
	bgtu	a4,a5,.L152
.L153:
	nop
	ld	ra,56(sp)
	.cfi_restore 1
	ld	s0,48(sp)
	.cfi_restore 8
	.cfi_def_cfa 2, 64
	addi	sp,sp,64
	.cfi_def_cfa_offset 0
	jr	ra
	.cfi_endproc
.LFE6966:
	.size	_ZN8nlohmann16json_abi_v3_11_36detail9dtoa_impl12grisu2_roundEPcimmmm, .-_ZN8nlohmann16json_abi_v3_11_36detail9dtoa_impl12grisu2_roundEPcimmmm
	.section	.rodata
	.align	3
.LC26:
	.string	"M_plus.e >= kAlpha"
	.align	3
.LC27:
	.string	"void nlohmann::json_abi_v3_11_3::detail::dtoa_impl::grisu2_digit_gen(char*, int&, int&, diyfp, diyfp, diyfp)"
	.align	3
.LC28:
	.string	"M_plus.e <= kGamma"
	.align	3
.LC29:
	.string	"p1 > 0"
	.align	3
.LC30:
	.string	"d <= 9"
	.align	3
.LC32:
	.string	"p2 > delta"
	.align	3
.LC34:
	.string	"p2 <= (std::numeric_limits<std::uint64_t>::max)() / 10"
	.section	.text._ZN8nlohmann16json_abi_v3_11_36detail9dtoa_impl16grisu2_digit_genEPcRiS4_NS2_5diyfpES5_S5_,"axG",@progbits,_ZN8nlohmann16json_abi_v3_11_36detail9dtoa_impl16grisu2_digit_genEPcRiS4_NS2_5diyfpES5_S5_,comdat
	.align	1
	.weak	_ZN8nlohmann16json_abi_v3_11_36detail9dtoa_impl16grisu2_digit_genEPcRiS4_NS2_5diyfpES5_S5_
	.type	_ZN8nlohmann16json_abi_v3_11_36detail9dtoa_impl16grisu2_digit_genEPcRiS4_NS2_5diyfpES5_S5_, @function
_ZN8nlohmann16json_abi_v3_11_36detail9dtoa_impl16grisu2_digit_genEPcRiS4_NS2_5diyfpES5_S5_:
.LFB6967:
	.cfi_startproc
	addi	sp,sp,-256
	.cfi_def_cfa_offset 256
	sd	ra,232(sp)
	sd	s0,224(sp)
	.cfi_offset 1, -24
	.cfi_offset 8, -32
	addi	s0,sp,240
	.cfi_def_cfa 8, 16
	sd	a0,-184(s0)
	sd	a1,-192(s0)
	sd	a2,-200(s0)
	sd	a3,-216(s0)
	sd	a4,-208(s0)
	sd	a5,-232(s0)
	sd	a6,-224(s0)
	sd	a7,8(s0)
	lw	a4,16(s0)
	li	a5,-60
	bge	a4,a5,.L155
	lui	a5,%hi(.LC26)
	addi	a3,a5,%lo(.LC26)
	lui	a5,%hi(.LC27)
	addi	a2,a5,%lo(.LC27)
	li	a5,16384
	addi	a1,a5,1128
	lui	a5,%hi(.LC6)
	addi	a0,a5,%lo(.LC6)
	call	__assert_func
.L155:
	lw	a4,16(s0)
	li	a5,-31
	blt	a4,a5,.L156
	lui	a5,%hi(.LC28)
	addi	a3,a5,%lo(.LC28)
	lui	a5,%hi(.LC27)
	addi	a2,a5,%lo(.LC27)
	li	a5,16384
	addi	a1,a5,1129
	lui	a5,%hi(.LC6)
	addi	a0,a5,%lo(.LC6)
	call	__assert_func
.L156:
	addi	a4,s0,-216
	addi	a5,s0,8
	mv	a1,a4
	mv	a0,a5
	call	_ZN8nlohmann16json_abi_v3_11_36detail9dtoa_impl5diyfp3subERKS3_S5_
	mv	a4,a0
	mv	a5,a1
	sd	a4,-144(s0)
	sd	a5,-136(s0)
	ld	a5,-144(s0)
	sd	a5,-24(s0)
	addi	a4,s0,-232
	addi	a5,s0,8
	mv	a1,a4
	mv	a0,a5
	call	_ZN8nlohmann16json_abi_v3_11_36detail9dtoa_impl5diyfp3subERKS3_S5_
	mv	a4,a0
	mv	a5,a1
	sd	a4,-128(s0)
	sd	a5,-120(s0)
	ld	a5,-128(s0)
	sd	a5,-32(s0)
	lw	a5,16(s0)
	negw	a5,a5
	sext.w	a5,a5
	mv	a4,a5
	li	a5,1
	sll	a4,a5,a4
	lw	a3,16(s0)
	addi	a5,s0,-160
	mv	a2,a3
	mv	a1,a4
	mv	a0,a5
	call	_ZN8nlohmann16json_abi_v3_11_36detail9dtoa_impl5diyfpC1Emi
	ld	a5,8(s0)
	lw	a4,-152(s0)
	negw	a4,a4
	sext.w	a4,a4
	srl	a5,a5,a4
	sw	a5,-36(s0)
	ld	a4,8(s0)
	ld	a5,-160(s0)
	addi	a5,a5,-1
	and	a5,a4,a5
	sd	a5,-48(s0)
	lw	a5,-36(s0)
	sext.w	a5,a5
	bne	a5,zero,.L157
	lui	a5,%hi(.LC29)
	addi	a3,a5,%lo(.LC29)
	lui	a5,%hi(.LC27)
	addi	a2,a5,%lo(.LC27)
	li	a5,16384
	addi	a1,a5,1150
	lui	a5,%hi(.LC6)
	addi	a0,a5,%lo(.LC6)
	call	__assert_func
.L157:
	sw	zero,-164(s0)
	addi	a4,s0,-164
	lw	a5,-36(s0)
	mv	a1,a4
	mv	a0,a5
	call	_ZN8nlohmann16json_abi_v3_11_36detail9dtoa_impl18find_largest_pow10EjRj
	mv	a5,a0
	sw	a5,-60(s0)
	lw	a5,-60(s0)
	sw	a5,-52(s0)
	j	.L158
.L162:
	lw	a5,-164(s0)
	lw	a4,-36(s0)
	divuw	a5,a4,a5
	sw	a5,-92(s0)
	lw	a5,-164(s0)
	lw	a4,-36(s0)
	remuw	a5,a4,a5
	sw	a5,-96(s0)
	lw	a5,-92(s0)
	sext.w	a4,a5
	li	a5,9
	bleu	a4,a5,.L159
	lui	a5,%hi(.LC30)
	addi	a3,a5,%lo(.LC30)
	lui	a5,%hi(.LC27)
	addi	a2,a5,%lo(.LC27)
	li	a5,16384
	addi	a1,a5,1186
	lui	a5,%hi(.LC6)
	addi	a0,a5,%lo(.LC6)
	call	__assert_func
.L159:
	lw	a5,-92(s0)
	andi	a5,a5,0xff
	addiw	a5,a5,48
	andi	a4,a5,0xff
	ld	a3,-184(s0)
	ld	a5,-192(s0)
	lw	a5,0(a5)
	addiw	a2,a5,1
	sext.w	a1,a2
	ld	a2,-192(s0)
	sw	a1,0(a2)
	add	a5,a3,a5
	sb	a4,0(a5)
	lw	a5,-96(s0)
	sw	a5,-36(s0)
	lw	a5,-52(s0)
	addiw	a5,a5,-1
	sw	a5,-52(s0)
	lwu	a5,-36(s0)
	lw	a4,-152(s0)
	negw	a4,a4
	sext.w	a4,a4
	sll	a5,a5,a4
	ld	a4,-48(s0)
	add	a5,a4,a5
	sd	a5,-104(s0)
	ld	a4,-104(s0)
	ld	a5,-24(s0)
	bgtu	a4,a5,.L160
	ld	a5,-200(s0)
	lw	a5,0(a5)
	lw	a4,-52(s0)
	addw	a5,a4,a5
	sext.w	a4,a5
	ld	a5,-200(s0)
	sw	a4,0(a5)
	lw	a5,-164(s0)
	slli	a5,a5,32
	srli	a5,a5,32
	lw	a4,-152(s0)
	negw	a4,a4
	sext.w	a4,a4
	sll	a5,a5,a4
	sd	a5,-112(s0)
	ld	a5,-192(s0)
	lw	a1,0(a5)
	ld	a5,-112(s0)
	ld	a4,-104(s0)
	ld	a3,-24(s0)
	ld	a2,-32(s0)
	ld	a0,-184(s0)
	call	_ZN8nlohmann16json_abi_v3_11_36detail9dtoa_impl12grisu2_roundEPcimmmm
	j	.L154
.L160:
	lw	a5,-164(s0)
	slli	a4,a5,32
	srli	a4,a4,32
	lui	a5,%hi(.LC31)
	ld	a5,%lo(.LC31)(a5)
	mul	a5,a4,a5
	srli	a5,a5,32
	srliw	a5,a5,3
	sext.w	a5,a5
	sw	a5,-164(s0)
.L158:
	lw	a5,-52(s0)
	sext.w	a5,a5
	bgt	a5,zero,.L162
	ld	a4,-48(s0)
	ld	a5,-24(s0)
	bgtu	a4,a5,.L163
	lui	a5,%hi(.LC32)
	addi	a3,a5,%lo(.LC32)
	lui	a5,%hi(.LC27)
	addi	a2,a5,%lo(.LC27)
	li	a5,16384
	addi	a1,a5,1273
	lui	a5,%hi(.LC6)
	addi	a0,a5,%lo(.LC6)
	call	__assert_func
.L163:
	sw	zero,-56(s0)
.L168:
	call	_ZNSt14numeric_limitsImE3maxEv
	mv	a4,a0
	lui	a5,%hi(.LC33)
	ld	a5,%lo(.LC33)(a5)
	mulhu	a5,a4,a5
	srli	a5,a5,3
	ld	a4,-48(s0)
	bleu	a4,a5,.L164
	lui	a5,%hi(.LC34)
	addi	a3,a5,%lo(.LC34)
	lui	a5,%hi(.LC27)
	addi	a2,a5,%lo(.LC27)
	li	a5,16384
	addi	a1,a5,1284
	lui	a5,%hi(.LC6)
	addi	a0,a5,%lo(.LC6)
	call	__assert_func
.L164:
	ld	a4,-48(s0)
	mv	a5,a4
	slli	a5,a5,2
	add	a5,a5,a4
	slli	a5,a5,1
	sd	a5,-48(s0)
	lw	a5,-152(s0)
	negw	a5,a5
	sext.w	a5,a5
	mv	a4,a5
	ld	a5,-48(s0)
	srl	a5,a5,a4
	sd	a5,-72(s0)
	ld	a5,-160(s0)
	addi	a5,a5,-1
	ld	a4,-48(s0)
	and	a5,a4,a5
	sd	a5,-80(s0)
	ld	a4,-72(s0)
	li	a5,9
	bleu	a4,a5,.L165
	lui	a5,%hi(.LC30)
	addi	a3,a5,%lo(.LC30)
	lui	a5,%hi(.LC27)
	addi	a2,a5,%lo(.LC27)
	li	a5,16384
	addi	a1,a5,1293
	lui	a5,%hi(.LC6)
	addi	a0,a5,%lo(.LC6)
	call	__assert_func
.L165:
	ld	a5,-72(s0)
	andi	a5,a5,0xff
	addiw	a5,a5,48
	andi	a4,a5,0xff
	ld	a3,-184(s0)
	ld	a5,-192(s0)
	lw	a5,0(a5)
	addiw	a2,a5,1
	sext.w	a1,a2
	ld	a2,-192(s0)
	sw	a1,0(a2)
	add	a5,a3,a5
	sb	a4,0(a5)
	ld	a5,-80(s0)
	sd	a5,-48(s0)
	lw	a5,-56(s0)
	addiw	a5,a5,1
	sw	a5,-56(s0)
	ld	a4,-24(s0)
	mv	a5,a4
	slli	a5,a5,2
	add	a5,a5,a4
	slli	a5,a5,1
	sd	a5,-24(s0)
	ld	a4,-32(s0)
	mv	a5,a4
	slli	a5,a5,2
	add	a5,a5,a4
	slli	a5,a5,1
	sd	a5,-32(s0)
	ld	a4,-48(s0)
	ld	a5,-24(s0)
	bleu	a4,a5,.L170
	j	.L168
.L170:
	nop
	ld	a5,-200(s0)
	lw	a5,0(a5)
	lw	a4,-56(s0)
	subw	a5,a5,a4
	sext.w	a4,a5
	ld	a5,-200(s0)
	sw	a4,0(a5)
	ld	a5,-160(s0)
	sd	a5,-88(s0)
	ld	a5,-192(s0)
	lw	a1,0(a5)
	ld	a5,-88(s0)
	ld	a4,-48(s0)
	ld	a3,-24(s0)
	ld	a2,-32(s0)
	ld	a0,-184(s0)
	call	_ZN8nlohmann16json_abi_v3_11_36detail9dtoa_impl12grisu2_roundEPcimmmm
.L154:
	ld	ra,232(sp)
	.cfi_restore 1
	ld	s0,224(sp)
	.cfi_restore 8
	.cfi_def_cfa 2, 256
	addi	sp,sp,256
	.cfi_def_cfa_offset 0
	jr	ra
	.cfi_endproc
.LFE6967:
	.size	_ZN8nlohmann16json_abi_v3_11_36detail9dtoa_impl16grisu2_digit_genEPcRiS4_NS2_5diyfpES5_S5_, .-_ZN8nlohmann16json_abi_v3_11_36detail9dtoa_impl16grisu2_digit_genEPcRiS4_NS2_5diyfpES5_S5_
	.section	.rodata
	.align	3
.LC35:
	.string	"m_plus.e == m_minus.e"
	.align	3
.LC36:
	.string	"void nlohmann::json_abi_v3_11_3::detail::dtoa_impl::grisu2(char*, int&, int&, diyfp, diyfp, diyfp)"
	.align	3
.LC37:
	.string	"m_plus.e == v.e"
	.section	.text._ZN8nlohmann16json_abi_v3_11_36detail9dtoa_impl6grisu2EPcRiS4_NS2_5diyfpES5_S5_,"axG",@progbits,_ZN8nlohmann16json_abi_v3_11_36detail9dtoa_impl6grisu2EPcRiS4_NS2_5diyfpES5_S5_,comdat
	.align	1
	.weak	_ZN8nlohmann16json_abi_v3_11_36detail9dtoa_impl6grisu2EPcRiS4_NS2_5diyfpES5_S5_
	.type	_ZN8nlohmann16json_abi_v3_11_36detail9dtoa_impl6grisu2EPcRiS4_NS2_5diyfpES5_S5_, @function
_ZN8nlohmann16json_abi_v3_11_36detail9dtoa_impl6grisu2EPcRiS4_NS2_5diyfpES5_S5_:
.LFB6968:
	.cfi_startproc
	addi	sp,sp,-224
	.cfi_def_cfa_offset 224
	sd	ra,200(sp)
	sd	s0,192(sp)
	.cfi_offset 1, -24
	.cfi_offset 8, -32
	addi	s0,sp,208
	.cfi_def_cfa 8, 16
	sd	a0,-136(s0)
	sd	a1,-144(s0)
	sd	a2,-152(s0)
	sd	a3,-168(s0)
	sd	a4,-160(s0)
	sd	a5,-184(s0)
	sd	a6,-176(s0)
	sd	a7,8(s0)
	lw	a4,16(s0)
	lw	a5,-160(s0)
	beq	a4,a5,.L172
	lui	a5,%hi(.LC35)
	addi	a3,a5,%lo(.LC35)
	lui	a5,%hi(.LC36)
	addi	a2,a5,%lo(.LC36)
	li	a5,16384
	addi	a1,a5,1354
	lui	a5,%hi(.LC6)
	addi	a0,a5,%lo(.LC6)
	call	__assert_func
.L172:
	lw	a4,16(s0)
	lw	a5,-176(s0)
	beq	a4,a5,.L173
	lui	a5,%hi(.LC37)
	addi	a3,a5,%lo(.LC37)
	lui	a5,%hi(.LC36)
	addi	a2,a5,%lo(.LC36)
	li	a5,16384
	addi	a1,a5,1355
	lui	a5,%hi(.LC6)
	addi	a0,a5,%lo(.LC6)
	call	__assert_func
.L173:
	lw	a5,16(s0)
	mv	a0,a5
	call	_ZN8nlohmann16json_abi_v3_11_36detail9dtoa_impl36get_cached_power_for_binary_exponentEi
	mv	a4,a0
	mv	a5,a1
	sd	a4,-32(s0)
	sd	a5,-24(s0)
	ld	a4,-32(s0)
	lw	a3,-24(s0)
	addi	a5,s0,-48
	mv	a2,a3
	mv	a1,a4
	mv	a0,a5
	call	_ZN8nlohmann16json_abi_v3_11_36detail9dtoa_impl5diyfpC1Emi
	addi	a4,s0,-48
	addi	a5,s0,-184
	mv	a1,a4
	mv	a0,a5
	call	_ZN8nlohmann16json_abi_v3_11_36detail9dtoa_impl5diyfp3mulERKS3_S5_
	mv	a4,a0
	mv	a5,a1
	sd	a4,-64(s0)
	sd	a5,-56(s0)
	addi	a4,s0,-48
	addi	a5,s0,-168
	mv	a1,a4
	mv	a0,a5
	call	_ZN8nlohmann16json_abi_v3_11_36detail9dtoa_impl5diyfp3mulERKS3_S5_
	mv	a4,a0
	mv	a5,a1
	sd	a4,-80(s0)
	sd	a5,-72(s0)
	addi	a4,s0,-48
	addi	a5,s0,8
	mv	a1,a4
	mv	a0,a5
	call	_ZN8nlohmann16json_abi_v3_11_36detail9dtoa_impl5diyfp3mulERKS3_S5_
	mv	a4,a0
	mv	a5,a1
	sd	a4,-96(s0)
	sd	a5,-88(s0)
	ld	a5,-80(s0)
	addi	a4,a5,1
	lw	a3,-72(s0)
	addi	a5,s0,-112
	mv	a2,a3
	mv	a1,a4
	mv	a0,a5
	call	_ZN8nlohmann16json_abi_v3_11_36detail9dtoa_impl5diyfpC1Emi
	ld	a5,-96(s0)
	addi	a4,a5,-1
	lw	a3,-88(s0)
	addi	a5,s0,-128
	mv	a2,a3
	mv	a1,a4
	mv	a0,a5
	call	_ZN8nlohmann16json_abi_v3_11_36detail9dtoa_impl5diyfpC1Emi
	lw	a5,-20(s0)
	negw	a5,a5
	sext.w	a4,a5
	ld	a5,-152(s0)
	sw	a4,0(a5)
	ld	a5,-120(s0)
	sd	a5,0(sp)
	ld	a7,-128(s0)
	ld	a5,-64(s0)
	ld	a6,-56(s0)
	ld	a3,-112(s0)
	ld	a4,-104(s0)
	ld	a2,-152(s0)
	ld	a1,-144(s0)
	ld	a0,-136(s0)
	call	_ZN8nlohmann16json_abi_v3_11_36detail9dtoa_impl16grisu2_digit_genEPcRiS4_NS2_5diyfpES5_S5_
	nop
	ld	ra,200(sp)
	.cfi_restore 1
	ld	s0,192(sp)
	.cfi_restore 8
	.cfi_def_cfa 2, 224
	addi	sp,sp,224
	.cfi_def_cfa_offset 0
	jr	ra
	.cfi_endproc
.LFE6968:
	.size	_ZN8nlohmann16json_abi_v3_11_36detail9dtoa_impl6grisu2EPcRiS4_NS2_5diyfpES5_S5_, .-_ZN8nlohmann16json_abi_v3_11_36detail9dtoa_impl6grisu2EPcRiS4_NS2_5diyfpES5_S5_
	.section	.rodata
	.align	3
.LC38:
	.string	"e > -1000"
	.align	3
.LC39:
	.string	"char* nlohmann::json_abi_v3_11_3::detail::dtoa_impl::append_exponent(char*, int)"
	.align	3
.LC40:
	.string	"e < 1000"
	.section	.text._ZN8nlohmann16json_abi_v3_11_36detail9dtoa_impl15append_exponentEPci,"axG",@progbits,_ZN8nlohmann16json_abi_v3_11_36detail9dtoa_impl15append_exponentEPci,comdat
	.align	1
	.weak	_ZN8nlohmann16json_abi_v3_11_36detail9dtoa_impl15append_exponentEPci
	.type	_ZN8nlohmann16json_abi_v3_11_36detail9dtoa_impl15append_exponentEPci, @function
_ZN8nlohmann16json_abi_v3_11_36detail9dtoa_impl15append_exponentEPci:
.LFB6970:
	.cfi_startproc
	addi	sp,sp,-48
	.cfi_def_cfa_offset 48
	sd	ra,40(sp)
	sd	s0,32(sp)
	.cfi_offset 1, -8
	.cfi_offset 8, -16
	addi	s0,sp,48
	.cfi_def_cfa 8, 0
	sd	a0,-40(s0)
	mv	a5,a1
	sw	a5,-44(s0)
	lw	a5,-44(s0)
	sext.w	a4,a5
	li	a5,-999
	bge	a4,a5,.L175
	lui	a5,%hi(.LC38)
	addi	a3,a5,%lo(.LC38)
	lui	a5,%hi(.LC39)
	addi	a2,a5,%lo(.LC39)
	li	a5,16384
	addi	a1,a5,1453
	lui	a5,%hi(.LC6)
	addi	a0,a5,%lo(.LC6)
	call	__assert_func
.L175:
	lw	a5,-44(s0)
	sext.w	a4,a5
	li	a5,999
	ble	a4,a5,.L176
	lui	a5,%hi(.LC40)
	addi	a3,a5,%lo(.LC40)
	lui	a5,%hi(.LC39)
	addi	a2,a5,%lo(.LC39)
	li	a5,16384
	addi	a1,a5,1454
	lui	a5,%hi(.LC6)
	addi	a0,a5,%lo(.LC6)
	call	__assert_func
.L176:
	lw	a5,-44(s0)
	sext.w	a5,a5
	bge	a5,zero,.L177
	lw	a5,-44(s0)
	negw	a5,a5
	sw	a5,-44(s0)
	ld	a5,-40(s0)
	addi	a4,a5,1
	sd	a4,-40(s0)
	li	a4,45
	sb	a4,0(a5)
	j	.L178
.L177:
	ld	a5,-40(s0)
	addi	a4,a5,1
	sd	a4,-40(s0)
	li	a4,43
	sb	a4,0(a5)
.L178:
	lw	a5,-44(s0)
	sw	a5,-20(s0)
	lw	a5,-20(s0)
	sext.w	a4,a5
	li	a5,9
	bgtu	a4,a5,.L179
	ld	a5,-40(s0)
	addi	a4,a5,1
	sd	a4,-40(s0)
	li	a4,48
	sb	a4,0(a5)
	lw	a5,-20(s0)
	andi	a5,a5,0xff
	addiw	a5,a5,48
	andi	a4,a5,0xff
	ld	a5,-40(s0)
	addi	a3,a5,1
	sd	a3,-40(s0)
	sb	a4,0(a5)
	j	.L180
.L179:
	lw	a5,-20(s0)
	sext.w	a4,a5
	li	a5,99
	bgtu	a4,a5,.L181
	lw	a5,-20(s0)
	slli	a4,a5,32
	srli	a4,a4,32
	lui	a5,%hi(.LC31)
	ld	a5,%lo(.LC31)(a5)
	mul	a5,a4,a5
	srli	a5,a5,32
	srliw	a5,a5,3
	sext.w	a5,a5
	andi	a5,a5,0xff
	addiw	a5,a5,48
	andi	a4,a5,0xff
	ld	a5,-40(s0)
	addi	a3,a5,1
	sd	a3,-40(s0)
	sb	a4,0(a5)
	lw	a5,-20(s0)
	mv	a3,a5
	slli	a4,a3,32
	srli	a4,a4,32
	lui	a5,%hi(.LC31)
	ld	a5,%lo(.LC31)(a5)
	mul	a5,a4,a5
	srli	a5,a5,32
	srliw	a5,a5,3
	mv	a4,a5
	mv	a5,a4
	slliw	a5,a5,2
	addw	a5,a5,a4
	slliw	a5,a5,1
	subw	a5,a3,a5
	sw	a5,-20(s0)
	lw	a5,-20(s0)
	andi	a5,a5,0xff
	addiw	a5,a5,48
	andi	a4,a5,0xff
	ld	a5,-40(s0)
	addi	a3,a5,1
	sd	a3,-40(s0)
	sb	a4,0(a5)
	j	.L180
.L181:
	lw	a5,-20(s0)
	slli	a4,a5,32
	srli	a4,a4,32
	li	a5,1374388224
	addi	a5,a5,1311
	mul	a5,a4,a5
	srli	a5,a5,32
	srliw	a5,a5,5
	sext.w	a5,a5
	andi	a5,a5,0xff
	addiw	a5,a5,48
	andi	a4,a5,0xff
	ld	a5,-40(s0)
	addi	a3,a5,1
	sd	a3,-40(s0)
	sb	a4,0(a5)
	lw	a5,-20(s0)
	mv	a3,a5
	slli	a4,a3,32
	srli	a4,a4,32
	li	a5,1374388224
	addi	a5,a5,1311
	mul	a5,a4,a5
	srli	a5,a5,32
	srliw	a5,a5,5
	mv	a4,a5
	li	a5,100
	mulw	a5,a4,a5
	subw	a5,a3,a5
	sw	a5,-20(s0)
	lw	a5,-20(s0)
	slli	a4,a5,32
	srli	a4,a4,32
	lui	a5,%hi(.LC31)
	ld	a5,%lo(.LC31)(a5)
	mul	a5,a4,a5
	srli	a5,a5,32
	srliw	a5,a5,3
	sext.w	a5,a5
	andi	a5,a5,0xff
	addiw	a5,a5,48
	andi	a4,a5,0xff
	ld	a5,-40(s0)
	addi	a3,a5,1
	sd	a3,-40(s0)
	sb	a4,0(a5)
	lw	a5,-20(s0)
	mv	a3,a5
	slli	a4,a3,32
	srli	a4,a4,32
	lui	a5,%hi(.LC31)
	ld	a5,%lo(.LC31)(a5)
	mul	a5,a4,a5
	srli	a5,a5,32
	srliw	a5,a5,3
	mv	a4,a5
	mv	a5,a4
	slliw	a5,a5,2
	addw	a5,a5,a4
	slliw	a5,a5,1
	subw	a5,a3,a5
	sw	a5,-20(s0)
	lw	a5,-20(s0)
	andi	a5,a5,0xff
	addiw	a5,a5,48
	andi	a4,a5,0xff
	ld	a5,-40(s0)
	addi	a3,a5,1
	sd	a3,-40(s0)
	sb	a4,0(a5)
.L180:
	ld	a5,-40(s0)
	mv	a0,a5
	ld	ra,40(sp)
	.cfi_restore 1
	ld	s0,32(sp)
	.cfi_restore 8
	.cfi_def_cfa 2, 48
	addi	sp,sp,48
	.cfi_def_cfa_offset 0
	jr	ra
	.cfi_endproc
.LFE6970:
	.size	_ZN8nlohmann16json_abi_v3_11_36detail9dtoa_impl15append_exponentEPci, .-_ZN8nlohmann16json_abi_v3_11_36detail9dtoa_impl15append_exponentEPci
	.section	.rodata
	.align	3
.LC41:
	.string	"min_exp < 0"
	.align	3
.LC42:
	.string	"char* nlohmann::json_abi_v3_11_3::detail::dtoa_impl::format_buffer(char*, int, int, int, int)"
	.align	3
.LC43:
	.string	"max_exp > 0"
	.align	3
.LC44:
	.string	"k > n"
	.section	.text._ZN8nlohmann16json_abi_v3_11_36detail9dtoa_impl13format_bufferEPciiii,"axG",@progbits,_ZN8nlohmann16json_abi_v3_11_36detail9dtoa_impl13format_bufferEPciiii,comdat
	.align	1
	.weak	_ZN8nlohmann16json_abi_v3_11_36detail9dtoa_impl13format_bufferEPciiii
	.type	_ZN8nlohmann16json_abi_v3_11_36detail9dtoa_impl13format_bufferEPciiii, @function
_ZN8nlohmann16json_abi_v3_11_36detail9dtoa_impl13format_bufferEPciiii:
.LFB6971:
	.cfi_startproc
	addi	sp,sp,-64
	.cfi_def_cfa_offset 64
	sd	ra,56(sp)
	sd	s0,48(sp)
	.cfi_offset 1, -8
	.cfi_offset 8, -16
	addi	s0,sp,64
	.cfi_def_cfa 8, 0
	sd	a0,-40(s0)
	mv	a5,a1
	sw	a5,-44(s0)
	mv	a5,a2
	sw	a5,-48(s0)
	mv	a5,a3
	sw	a5,-52(s0)
	mv	a5,a4
	sw	a5,-56(s0)
	lw	a5,-52(s0)
	sext.w	a5,a5
	blt	a5,zero,.L184
	lui	a5,%hi(.LC41)
	addi	a3,a5,%lo(.LC41)
	lui	a5,%hi(.LC42)
	addi	a2,a5,%lo(.LC42)
	li	a5,16384
	addi	a1,a5,1506
	lui	a5,%hi(.LC6)
	addi	a0,a5,%lo(.LC6)
	call	__assert_func
.L184:
	lw	a5,-56(s0)
	sext.w	a5,a5
	bgt	a5,zero,.L185
	lui	a5,%hi(.LC43)
	addi	a3,a5,%lo(.LC43)
	lui	a5,%hi(.LC42)
	addi	a2,a5,%lo(.LC42)
	li	a5,16384
	addi	a1,a5,1507
	lui	a5,%hi(.LC6)
	addi	a0,a5,%lo(.LC6)
	call	__assert_func
.L185:
	lw	a5,-44(s0)
	sw	a5,-20(s0)
	lw	a5,-44(s0)
	mv	a4,a5
	lw	a5,-48(s0)
	addw	a5,a4,a5
	sw	a5,-24(s0)
	lw	a5,-20(s0)
	mv	a4,a5
	lw	a5,-24(s0)
	sext.w	a4,a4
	sext.w	a5,a5
	bgt	a4,a5,.L186
	lw	a5,-24(s0)
	mv	a4,a5
	lw	a5,-56(s0)
	sext.w	a4,a4
	sext.w	a5,a5
	bgt	a4,a5,.L186
	lw	a5,-20(s0)
	ld	a4,-40(s0)
	add	a3,a4,a5
	lw	a4,-24(s0)
	lw	a5,-20(s0)
	sub	a5,a4,a5
	mv	a2,a5
	li	a1,48
	mv	a0,a3
	call	memset
	lw	a5,-24(s0)
	ld	a4,-40(s0)
	add	a5,a4,a5
	li	a4,46
	sb	a4,0(a5)
	lw	a5,-24(s0)
	addi	a5,a5,1
	ld	a4,-40(s0)
	add	a5,a4,a5
	li	a4,48
	sb	a4,0(a5)
	lw	a5,-24(s0)
	addi	a5,a5,2
	ld	a4,-40(s0)
	add	a5,a4,a5
	j	.L187
.L186:
	lw	a5,-24(s0)
	sext.w	a5,a5
	ble	a5,zero,.L188
	lw	a5,-24(s0)
	mv	a4,a5
	lw	a5,-56(s0)
	sext.w	a4,a4
	sext.w	a5,a5
	bgt	a4,a5,.L188
	lw	a5,-20(s0)
	mv	a4,a5
	lw	a5,-24(s0)
	sext.w	a4,a4
	sext.w	a5,a5
	bgt	a4,a5,.L189
	lui	a5,%hi(.LC44)
	addi	a3,a5,%lo(.LC44)
	lui	a5,%hi(.LC42)
	addi	a2,a5,%lo(.LC42)
	li	a5,16384
	addi	a1,a5,1533
	lui	a5,%hi(.LC6)
	addi	a0,a5,%lo(.LC6)
	call	__assert_func
.L189:
	lw	a5,-24(s0)
	addi	a5,a5,1
	ld	a4,-40(s0)
	add	a3,a4,a5
	lw	a5,-24(s0)
	ld	a4,-40(s0)
	add	a1,a4,a5
	lw	a4,-20(s0)
	lw	a5,-24(s0)
	sub	a5,a4,a5
	mv	a2,a5
	mv	a0,a3
	call	memmove
	lw	a5,-24(s0)
	ld	a4,-40(s0)
	add	a5,a4,a5
	li	a4,46
	sb	a4,0(a5)
	lw	a5,-20(s0)
	addi	a5,a5,1
	ld	a4,-40(s0)
	add	a5,a4,a5
	j	.L187
.L188:
	lw	a5,-52(s0)
	mv	a4,a5
	lw	a5,-24(s0)
	sext.w	a4,a4
	sext.w	a5,a5
	bge	a4,a5,.L190
	lw	a5,-24(s0)
	sext.w	a5,a5
	bgt	a5,zero,.L190
	lw	a5,-24(s0)
	negw	a5,a5
	sext.w	a5,a5
	addi	a5,a5,2
	ld	a4,-40(s0)
	add	a5,a4,a5
	lw	a4,-20(s0)
	mv	a2,a4
	ld	a1,-40(s0)
	mv	a0,a5
	call	memmove
	ld	a5,-40(s0)
	li	a4,48
	sb	a4,0(a5)
	ld	a5,-40(s0)
	addi	a5,a5,1
	li	a4,46
	sb	a4,0(a5)
	ld	a5,-40(s0)
	addi	a5,a5,2
	lw	a4,-24(s0)
	negw	a4,a4
	sext.w	a4,a4
	mv	a2,a4
	li	a1,48
	mv	a0,a5
	call	memset
	lw	a5,-24(s0)
	negw	a5,a5
	sext.w	a5,a5
	mv	a4,a5
	lw	a5,-20(s0)
	add	a5,a4,a5
	addi	a5,a5,2
	ld	a4,-40(s0)
	add	a5,a4,a5
	j	.L187
.L190:
	lw	a5,-20(s0)
	sext.w	a4,a5
	li	a5,1
	bne	a4,a5,.L191
	ld	a5,-40(s0)
	addi	a5,a5,1
	sd	a5,-40(s0)
	j	.L192
.L191:
	ld	a5,-40(s0)
	addi	a4,a5,2
	ld	a5,-40(s0)
	addi	a3,a5,1
	lw	a5,-20(s0)
	addi	a5,a5,-1
	mv	a2,a5
	mv	a1,a3
	mv	a0,a4
	call	memmove
	ld	a5,-40(s0)
	addi	a5,a5,1
	li	a4,46
	sb	a4,0(a5)
	lw	a5,-20(s0)
	addi	a5,a5,1
	ld	a4,-40(s0)
	add	a5,a4,a5
	sd	a5,-40(s0)
.L192:
	ld	a5,-40(s0)
	addi	a4,a5,1
	sd	a4,-40(s0)
	li	a4,101
	sb	a4,0(a5)
	lw	a5,-24(s0)
	addiw	a5,a5,-1
	sext.w	a5,a5
	mv	a1,a5
	ld	a0,-40(s0)
	call	_ZN8nlohmann16json_abi_v3_11_36detail9dtoa_impl15append_exponentEPci
	mv	a5,a0
	nop
.L187:
	mv	a0,a5
	ld	ra,56(sp)
	.cfi_restore 1
	ld	s0,48(sp)
	.cfi_restore 8
	.cfi_def_cfa 2, 64
	addi	sp,sp,64
	.cfi_def_cfa_offset 0
	jr	ra
	.cfi_endproc
.LFE6971:
	.size	_ZN8nlohmann16json_abi_v3_11_36detail9dtoa_impl13format_bufferEPciiii, .-_ZN8nlohmann16json_abi_v3_11_36detail9dtoa_impl13format_bufferEPciiii
	.section	.text._ZNKSt5arrayIhLm400EEixEm,"axG",@progbits,_ZNKSt5arrayIhLm400EEixEm,comdat
	.align	1
	.weak	_ZNKSt5arrayIhLm400EEixEm
	.type	_ZNKSt5arrayIhLm400EEixEm, @function
_ZNKSt5arrayIhLm400EEixEm:
.LFB6986:
	.cfi_startproc
	addi	sp,sp,-32
	.cfi_def_cfa_offset 32
	sd	ra,24(sp)
	sd	s0,16(sp)
	.cfi_offset 1, -8
	.cfi_offset 8, -16
	addi	s0,sp,32
	.cfi_def_cfa 8, 0
	sd	a0,-24(s0)
	sd	a1,-32(s0)
	ld	a4,-24(s0)
	ld	a5,-32(s0)
	add	a5,a4,a5
	mv	a0,a5
	ld	ra,24(sp)
	.cfi_restore 1
	ld	s0,16(sp)
	.cfi_restore 8
	.cfi_def_cfa 2, 32
	addi	sp,sp,32
	.cfi_def_cfa_offset 0
	jr	ra
	.cfi_endproc
.LFE6986:
	.size	_ZNKSt5arrayIhLm400EEixEm, .-_ZNKSt5arrayIhLm400EEixEm
	.section	.text._ZSt7forwardIcEOT_RNSt16remove_referenceIS0_E4typeE,"axG",@progbits,_ZSt7forwardIcEOT_RNSt16remove_referenceIS0_E4typeE,comdat
	.align	1
	.weak	_ZSt7forwardIcEOT_RNSt16remove_referenceIS0_E4typeE
	.type	_ZSt7forwardIcEOT_RNSt16remove_referenceIS0_E4typeE, @function
_ZSt7forwardIcEOT_RNSt16remove_referenceIS0_E4typeE:
.LFB7809:
	.cfi_startproc
	addi	sp,sp,-32
	.cfi_def_cfa_offset 32
	sd	ra,24(sp)
	sd	s0,16(sp)
	.cfi_offset 1, -8
	.cfi_offset 8, -16
	addi	s0,sp,32
	.cfi_def_cfa 8, 0
	sd	a0,-24(s0)
	ld	a5,-24(s0)
	mv	a0,a5
	ld	ra,24(sp)
	.cfi_restore 1
	ld	s0,16(sp)
	.cfi_restore 8
	.cfi_def_cfa 2, 32
	addi	sp,sp,32
	.cfi_def_cfa_offset 0
	jr	ra
	.cfi_endproc
.LFE7809:
	.size	_ZSt7forwardIcEOT_RNSt16remove_referenceIS0_E4typeE, .-_ZSt7forwardIcEOT_RNSt16remove_referenceIS0_E4typeE
	.globl	b
	.section	.sdata,"aw"
	.align	3
	.type	b, @object
	.size	b, 8
b:
	.dword	2
	.section	.text._ZNSt12_Vector_baseIlSaIlEE12_Vector_implD2Ev,"axG",@progbits,_ZNSt12_Vector_baseIlSaIlEE12_Vector_implD5Ev,comdat
	.align	1
	.weak	_ZNSt12_Vector_baseIlSaIlEE12_Vector_implD2Ev
	.type	_ZNSt12_Vector_baseIlSaIlEE12_Vector_implD2Ev, @function
_ZNSt12_Vector_baseIlSaIlEE12_Vector_implD2Ev:
.LFB8132:
	.cfi_startproc
	addi	sp,sp,-48
	.cfi_def_cfa_offset 48
	sd	ra,40(sp)
	sd	s0,32(sp)
	.cfi_offset 1, -8
	.cfi_offset 8, -16
	addi	s0,sp,48
	.cfi_def_cfa 8, 0
	sd	a0,-40(s0)
	ld	a5,-40(s0)
	sd	a5,-24(s0)
	ld	a0,-24(s0)
	call	_ZNSt15__new_allocatorIlED2Ev
	nop
	nop
	ld	ra,40(sp)
	.cfi_restore 1
	ld	s0,32(sp)
	.cfi_restore 8
	.cfi_def_cfa 2, 48
	addi	sp,sp,48
	.cfi_def_cfa_offset 0
	jr	ra
	.cfi_endproc
.LFE8132:
	.size	_ZNSt12_Vector_baseIlSaIlEE12_Vector_implD2Ev, .-_ZNSt12_Vector_baseIlSaIlEE12_Vector_implD2Ev
	.weak	_ZNSt12_Vector_baseIlSaIlEE12_Vector_implD1Ev
	.set	_ZNSt12_Vector_baseIlSaIlEE12_Vector_implD1Ev,_ZNSt12_Vector_baseIlSaIlEE12_Vector_implD2Ev
	.section	.text._ZNSt12_Vector_baseIlSaIlEEC2Ev,"axG",@progbits,_ZNSt12_Vector_baseIlSaIlEEC5Ev,comdat
	.align	1
	.weak	_ZNSt12_Vector_baseIlSaIlEEC2Ev
	.type	_ZNSt12_Vector_baseIlSaIlEEC2Ev, @function
_ZNSt12_Vector_baseIlSaIlEEC2Ev:
.LFB8134:
	.cfi_startproc
	addi	sp,sp,-32
	.cfi_def_cfa_offset 32
	sd	ra,24(sp)
	sd	s0,16(sp)
	.cfi_offset 1, -8
	.cfi_offset 8, -16
	addi	s0,sp,32
	.cfi_def_cfa 8, 0
	sd	a0,-24(s0)
	ld	a5,-24(s0)
	mv	a0,a5
	call	_ZNSt12_Vector_baseIlSaIlEE12_Vector_implC1Ev
	nop
	ld	ra,24(sp)
	.cfi_restore 1
	ld	s0,16(sp)
	.cfi_restore 8
	.cfi_def_cfa 2, 32
	addi	sp,sp,32
	.cfi_def_cfa_offset 0
	jr	ra
	.cfi_endproc
.LFE8134:
	.size	_ZNSt12_Vector_baseIlSaIlEEC2Ev, .-_ZNSt12_Vector_baseIlSaIlEEC2Ev
	.weak	_ZNSt12_Vector_baseIlSaIlEEC1Ev
	.set	_ZNSt12_Vector_baseIlSaIlEEC1Ev,_ZNSt12_Vector_baseIlSaIlEEC2Ev
	.section	.text._ZNSt6vectorIlSaIlEEC2Ev,"axG",@progbits,_ZNSt6vectorIlSaIlEEC5Ev,comdat
	.align	1
	.weak	_ZNSt6vectorIlSaIlEEC2Ev
	.type	_ZNSt6vectorIlSaIlEEC2Ev, @function
_ZNSt6vectorIlSaIlEEC2Ev:
.LFB8136:
	.cfi_startproc
	addi	sp,sp,-32
	.cfi_def_cfa_offset 32
	sd	ra,24(sp)
	sd	s0,16(sp)
	.cfi_offset 1, -8
	.cfi_offset 8, -16
	addi	s0,sp,32
	.cfi_def_cfa 8, 0
	sd	a0,-24(s0)
	ld	a5,-24(s0)
	mv	a0,a5
	call	_ZNSt12_Vector_baseIlSaIlEEC2Ev
	nop
	ld	ra,24(sp)
	.cfi_restore 1
	ld	s0,16(sp)
	.cfi_restore 8
	.cfi_def_cfa 2, 32
	addi	sp,sp,32
	.cfi_def_cfa_offset 0
	jr	ra
	.cfi_endproc
.LFE8136:
	.size	_ZNSt6vectorIlSaIlEEC2Ev, .-_ZNSt6vectorIlSaIlEEC2Ev
	.weak	_ZNSt6vectorIlSaIlEEC1Ev
	.set	_ZNSt6vectorIlSaIlEEC1Ev,_ZNSt6vectorIlSaIlEEC2Ev
	.section	.rodata
	.align	3
.LC45:
	.string	"A"
	.align	3
.LC46:
	.string	"B"
	.align	3
.LC47:
	.string	"C"
	.align	3
.LC48:
	.string	"H[n]: "
	.align	3
.LC49:
	.string	" "
	.align	3
.LC50:
	.string	"K[m]: "
	.align	3
.LC51:
	.string	"n_i: "
	.align	3
.LC52:
	.string	"Matrice Az under modulo "
	.align	3
.LC53:
	.string	" is: "
	.align	3
.LC54:
	.string	"Matrice Bz under modulo "
	.align	3
.LC55:
	.string	"Matrice Cz under modulo "
	.align	3
.LC56:
	.string	"zA(x):"
	.align	3
.LC57:
	.string	"zA("
	.align	3
.LC58:
	.string	")= "
	.align	3
.LC59:
	.string	"z_hatA(x)"
	.align	3
.LC60:
	.string	"zB(x):"
	.align	3
.LC61:
	.string	"zB("
	.align	3
.LC62:
	.string	"z_hatB(x)"
	.align	3
.LC63:
	.string	"zC(x):"
	.align	3
.LC64:
	.string	"zC("
	.align	3
.LC65:
	.string	"z_hatC(x)"
	.align	3
.LC66:
	.string	"x_hat(h)"
	.align	3
.LC67:
	.string	"w_bar(h):"
	.align	3
.LC68:
	.string	"w_bar("
	.align	3
.LC69:
	.string	"w_hat(x):"
	.align	3
.LC70:
	.string	"w_hat("
	.align	3
.LC71:
	.string	"w_hat(x)"
	.align	3
.LC72:
	.string	"zA(x)zB(x)-zC(x)"
	.align	3
.LC73:
	.string	"KvH(x)"
	.align	3
.LC74:
	.string	"vK(x)"
	.align	3
.LC75:
	.string	"h0(x)"
	.align	3
.LC76:
	.string	"s(x)"
	.align	3
.LC77:
	.string	"sigma1 = "
	.align	3
.LC78:
	.string	"alpha = "
	.align	3
.LC79:
	.string	"beta1 = "
	.align	3
.LC80:
	.string	"beta2 = "
	.align	3
.LC81:
	.string	"etaA = "
	.align	3
.LC82:
	.string	"etaB = "
	.align	3
.LC83:
	.string	"etaC = "
	.align	3
.LC84:
	.string	"etaA_z_hatA(x)"
	.align	3
.LC85:
	.string	"etaB_z_hatB(x)"
	.align	3
.LC86:
	.string	"etaC_z_hatC(x)"
	.align	3
.LC87:
	.string	"Sum_M_z_hatM(x)"
	.align	3
.LC88:
	.string	"r(alpha, x)"
	.align	3
.LC89:
	.string	"r(alpha, x)Sum_M_z_hatM(x)"
	.align	3
.LC90:
	.string	"v_H"
	.align	3
.LC91:
	.string	"z_hat(x)"
	.align	3
.LC92:
	.string	"A_hat(x)"
	.align	3
.LC93:
	.string	"B_hat(x)"
	.align	3
.LC94:
	.string	"C_hat(x)"
	.align	3
.LC95:
	.string	"eta_A_hat: "
	.align	3
.LC96:
	.string	"eta_B_hat: "
	.align	3
.LC97:
	.string	"eta_C_hat: "
	.align	3
.LC98:
	.string	"Sum_M_eta_M_r_M(alpha ,x)"
	.align	3
.LC99:
	.string	"Sum_M_eta_M_r_M(alpha ,x)z-hat(x)"
	.align	3
.LC100:
	.string	"Sum_check_protocol"
	.align	3
.LC101:
	.string	"h1(x)"
	.align	3
.LC102:
	.string	"g1(x)"
	.align	3
.LC103:
	.string	"sigma2 = "
	.align	3
.LC104:
	.string	"A_hat_M_hat"
	.align	3
.LC105:
	.string	"B_hat_M_hat"
	.align	3
.LC106:
	.string	"C_hat_M_hat"
	.align	3
.LC107:
	.string	"eta_A_hat_M_hat: "
	.align	3
.LC108:
	.string	"eta_B_hat_M_hat: "
	.align	3
.LC109:
	.string	"eta_C_hat_M_hat: "
	.align	3
.LC110:
	.string	"r_Sum_M_eta_M_M_hat_x_beta1"
	.align	3
.LC111:
	.string	"h2(x)"
	.align	3
.LC112:
	.string	"g2(x)"
	.align	3
.LC113:
	.string	"vH(beta1) = "
	.align	3
.LC114:
	.string	"vH(beta2) = "
	.align	3
.LC115:
	.string	"sigma3 = "
	.align	3
.LC116:
	.string	"poly_pi_a"
	.align	3
.LC117:
	.string	"poly_pi_b"
	.align	3
.LC118:
	.string	"poly_pi_c"
	.align	3
.LC119:
	.string	"a(x)"
	.align	3
.LC120:
	.string	"b(x)"
	.align	3
.LC121:
	.string	"poly_f_3(x)"
	.align	3
.LC122:
	.string	"g3(x)"
	.align	3
.LC123:
	.string	"sigma_3_set_k = "
	.align	3
.LC124:
	.string	"f3(x)new"
	.align	3
.LC125:
	.string	"h3(x)"
	.align	3
.LC126:
	.string	"p(x)"
	.align	3
.LC127:
	.string	"y_prime = "
	.align	3
.LC128:
	.string	"div = "
	.align	3
.LC129:
	.string	"q(x)"
	.align	3
.LC130:
	.string	"p_17_AHP = "
	.align	3
.LC131:
	.string	"Com1_AHP_x = "
	.align	3
.LC132:
	.string	"Com2_AHP_x = "
	.align	3
.LC133:
	.string	"Com3_AHP_x = "
	.align	3
.LC134:
	.string	"Com4_AHP_x = "
	.align	3
.LC135:
	.string	"Com5_AHP_x = "
	.align	3
.LC136:
	.string	"Com6_AHP_x = "
	.align	3
.LC137:
	.string	"Com7_AHP_x = "
	.align	3
.LC138:
	.string	"Com8_AHP_x = "
	.align	3
.LC139:
	.string	"Com9_AHP_x = "
	.align	3
.LC140:
	.string	"Com10_AHP_x = "
	.align	3
.LC141:
	.string	"Com11_AHP_x = "
	.align	3
.LC142:
	.string	"Com12_AHP_x = "
	.align	3
.LC143:
	.string	"ComP_AHP = "
	.align	3
.LC144:
	.string	"P1AHP"
	.align	3
.LC145:
	.string	"P2AHP"
	.align	3
.LC146:
	.string	"P3AHP"
	.align	3
.LC147:
	.string	"P4AHP"
	.align	3
.LC148:
	.string	"P5AHP"
	.align	3
.LC149:
	.string	"P6AHP"
	.align	3
.LC150:
	.string	"P7AHP"
	.align	3
.LC151:
	.string	"P8AHP"
	.align	3
.LC152:
	.string	"P9AHP"
	.align	3
.LC153:
	.string	"P10AHP"
	.align	3
.LC154:
	.string	"P11AHP"
	.align	3
.LC155:
	.string	"P12AHP"
	.align	3
.LC156:
	.string	"P13AHP"
	.align	3
.LC157:
	.string	"P14AHP"
	.align	3
.LC158:
	.string	"P15AHP"
	.align	3
.LC159:
	.string	"P16AHP"
	.align	3
.LC160:
	.string	"P17AHP"
	.align	3
.LC161:
	.string	"\n\n\n\n"
	.align	3
.LC162:
	.string	"data/proof.json"
	.align	3
.LC163:
	.string	"JSON data has been written to proof.json\n"
	.align	3
.LC164:
	.string	"Error opening file for writing proof.json\n"
	.text
	.align	1
	.globl	_Z14proofGeneratorv
	.type	_Z14proofGeneratorv, @function
_Z14proofGeneratorv:
.LFB8127:
	.cfi_startproc
	.cfi_personality 0x9b,DW.ref.__gxx_personality_v0
	.cfi_lsda 0x1b,.LLSDA8127
	addi	sp,sp,-48
	.cfi_def_cfa_offset 48
	sd	ra,40(sp)
	sd	s0,32(sp)
	sd	s1,24(sp)
	sd	s2,16(sp)
	sd	s3,8(sp)
	sd	s4,0(sp)
	.cfi_offset 1, -8
	.cfi_offset 8, -16
	.cfi_offset 9, -24
	.cfi_offset 18, -32
	.cfi_offset 19, -40
	.cfi_offset 20, -48
	addi	s0,sp,48
	.cfi_def_cfa 8, 0
	li	t0,-12288
	addi	t0,t0,816
	add	sp,sp,t0
	lui	a5,%hi(x18_array)
	addi	a5,a5,%lo(x18_array)
	lw	a5,0(a5)
	mv	a1,a5
	lui	a5,%hi(_ZSt4cout)
	addi	a0,a5,%lo(_ZSt4cout)
.LEHB8:
	call	_ZNSolsEi
	mv	a4,a0
	lui	a5,%hi(_ZSt4endlIcSt11char_traitsIcEERSt13basic_ostreamIT_T0_ES6_)
	addi	a1,a5,%lo(_ZSt4endlIcSt11char_traitsIcEERSt13basic_ostreamIT_T0_ES6_)
	mv	a0,a4
	call	_ZNSolsEPFRSoS_E
.LEHE8:
	li	a5,-8192
	addi	a5,a5,-48
	add	a5,a5,s0
	lui	a4,%hi(C.0.0)
	addi	a4,a4,%lo(C.0.0)
	sd	a4,56(a5)
	li	a5,-8192
	addi	a5,a5,-48
	add	a5,a5,s0
	li	a4,6
	sd	a4,64(a5)
	li	a5,-8192
	addi	a5,a5,72
	addi	a5,a5,-48
	add	a5,a5,s0
	sd	a5,-808(s0)
	nop
	nop
	li	a5,-8192
	addi	a5,a5,72
	addi	a5,a5,-48
	add	a3,a5,s0
	li	a5,-8192
	addi	a5,a5,-48
	add	a5,a5,s0
	li	a4,-8192
	addi	a4,a4,32
	addi	a4,a4,-48
	add	a4,a4,s0
	ld	a1,56(a5)
	ld	a2,64(a5)
	mv	a0,a4
.LEHB9:
	call	_ZNSt6vectorIlSaIlEEC1ESt16initializer_listIlERKS0_
.LEHE9:
	li	a5,-8192
	addi	a5,a5,72
	addi	a5,a5,-48
	add	a5,a5,s0
	mv	a0,a5
	call	_ZNSt15__new_allocatorIlED2Ev
	nop
	li	a5,3
	sd	a5,-392(s0)
	li	a5,-8192
	addi	a5,a5,-48
	add	a5,a5,s0
	lui	a4,%hi(C.1.1)
	addi	a4,a4,%lo(C.1.1)
	sd	a4,80(a5)
	li	a5,-8192
	addi	a5,a5,-48
	add	a5,a5,s0
	li	a4,48
	sd	a4,88(a5)
	li	a5,-8192
	addi	a5,a5,96
	addi	a5,a5,-48
	add	a5,a5,s0
	sd	a5,-816(s0)
	nop
	nop
	li	a5,-8192
	addi	a5,a5,96
	addi	a5,a5,-48
	add	a3,a5,s0
	li	a5,-8192
	addi	a5,a5,-48
	add	a5,a5,s0
	li	a4,-8192
	addi	a4,a4,8
	addi	a4,a4,-48
	add	a4,a4,s0
	ld	a1,80(a5)
	ld	a2,88(a5)
	mv	a0,a4
.LEHB10:
	call	_ZNSt6vectorIlSaIlEEC1ESt16initializer_listIlERKS0_
.LEHE10:
	li	a5,-8192
	addi	a5,a5,96
	addi	a5,a5,-48
	add	a5,a5,s0
	mv	a0,a5
	call	_ZNSt15__new_allocatorIlED2Ev
	nop
	li	a5,1309
	sd	a5,-400(s0)
	li	a5,-8192
	addi	a5,a5,-48
	add	a5,a5,s0
	lui	a4,%hi(C.2.2)
	addi	a4,a4,%lo(C.2.2)
	sd	a4,104(a5)
	li	a5,-8192
	addi	a5,a5,-48
	add	a5,a5,s0
	li	a4,8
	sd	a4,112(a5)
	li	a5,-8192
	addi	a5,a5,120
	addi	a5,a5,-48
	add	a5,a5,s0
	sd	a5,-824(s0)
	nop
	nop
	li	a5,-8192
	addi	a5,a5,120
	addi	a5,a5,-48
	add	a3,a5,s0
	li	a5,-8192
	addi	a5,a5,-48
	add	a5,a5,s0
	li	a4,-8192
	addi	a4,a4,-16
	addi	a4,a4,-48
	add	a4,a4,s0
	ld	a1,104(a5)
	ld	a2,112(a5)
	mv	a0,a4
.LEHB11:
	call	_ZNSt6vectorIlSaIlEEC1ESt16initializer_listIlERKS0_
.LEHE11:
	li	a5,-8192
	addi	a5,a5,120
	addi	a5,a5,-48
	add	a5,a5,s0
	mv	a0,a5
	call	_ZNSt15__new_allocatorIlED2Ev
	nop
	li	a5,-8192
	addi	a5,a5,-48
	add	a5,a5,s0
	lui	a4,%hi(C.3.3)
	addi	a4,a4,%lo(C.3.3)
	sd	a4,128(a5)
	li	a5,-8192
	addi	a5,a5,-48
	add	a5,a5,s0
	li	a4,8
	sd	a4,136(a5)
	li	a5,-8192
	addi	a5,a5,144
	addi	a5,a5,-48
	add	a5,a5,s0
	sd	a5,-832(s0)
	nop
	nop
	li	a5,-8192
	addi	a5,a5,144
	addi	a5,a5,-48
	add	a3,a5,s0
	li	a5,-8192
	addi	a5,a5,-48
	add	a5,a5,s0
	li	a4,-8192
	addi	a4,a4,-40
	addi	a4,a4,-48
	add	a4,a4,s0
	ld	a1,128(a5)
	ld	a2,136(a5)
	mv	a0,a4
.LEHB12:
	call	_ZNSt6vectorIlSaIlEEC1ESt16initializer_listIlERKS0_
.LEHE12:
	li	a5,-8192
	addi	a5,a5,144
	addi	a5,a5,-48
	add	a5,a5,s0
	mv	a0,a5
	call	_ZNSt15__new_allocatorIlED2Ev
	nop
	li	a5,-8192
	addi	a5,a5,-48
	add	a5,a5,s0
	lui	a4,%hi(C.4.4)
	addi	a4,a4,%lo(C.4.4)
	sd	a4,152(a5)
	li	a5,-8192
	addi	a5,a5,-48
	add	a5,a5,s0
	li	a4,8
	sd	a4,160(a5)
	li	a5,-8192
	addi	a5,a5,168
	addi	a5,a5,-48
	add	a5,a5,s0
	sd	a5,-840(s0)
	nop
	nop
	li	a5,-8192
	addi	a5,a5,168
	addi	a5,a5,-48
	add	a3,a5,s0
	li	a5,-8192
	addi	a5,a5,-48
	add	a5,a5,s0
	li	a4,-8192
	addi	a4,a4,-64
	addi	a4,a4,-48
	add	a4,a4,s0
	ld	a1,152(a5)
	ld	a2,160(a5)
	mv	a0,a4
.LEHB13:
	call	_ZNSt6vectorIlSaIlEEC1ESt16initializer_listIlERKS0_
.LEHE13:
	li	a5,-8192
	addi	a5,a5,168
	addi	a5,a5,-48
	add	a5,a5,s0
	mv	a0,a5
	call	_ZNSt15__new_allocatorIlED2Ev
	nop
	li	a5,-8192
	addi	a5,a5,-48
	add	a5,a5,s0
	lui	a4,%hi(C.5.5)
	addi	a4,a4,%lo(C.5.5)
	sd	a4,176(a5)
	li	a5,-8192
	addi	a5,a5,-48
	add	a5,a5,s0
	li	a4,8
	sd	a4,184(a5)
	li	a5,-8192
	addi	a5,a5,192
	addi	a5,a5,-48
	add	a5,a5,s0
	sd	a5,-848(s0)
	nop
	nop
	li	a5,-8192
	addi	a5,a5,192
	addi	a5,a5,-48
	add	a3,a5,s0
	li	a5,-8192
	addi	a5,a5,-48
	add	a5,a5,s0
	li	a4,-8192
	addi	a4,a4,-88
	addi	a4,a4,-48
	add	a4,a4,s0
	ld	a1,176(a5)
	ld	a2,184(a5)
	mv	a0,a4
.LEHB14:
	call	_ZNSt6vectorIlSaIlEEC1ESt16initializer_listIlERKS0_
.LEHE14:
	li	a5,-8192
	addi	a5,a5,192
	addi	a5,a5,-48
	add	a5,a5,s0
	mv	a0,a5
	call	_ZNSt15__new_allocatorIlED2Ev
	nop
	li	a5,-8192
	addi	a5,a5,-48
	add	a5,a5,s0
	lui	a4,%hi(C.6.6)
	addi	a4,a4,%lo(C.6.6)
	sd	a4,200(a5)
	li	a5,-8192
	addi	a5,a5,-48
	add	a5,a5,s0
	li	a4,8
	sd	a4,208(a5)
	li	a5,-8192
	addi	a5,a5,216
	addi	a5,a5,-48
	add	a5,a5,s0
	sd	a5,-856(s0)
	nop
	nop
	li	a5,-8192
	addi	a5,a5,216
	addi	a5,a5,-48
	add	a3,a5,s0
	li	a5,-8192
	addi	a5,a5,-48
	add	a5,a5,s0
	li	a4,-8192
	addi	a4,a4,-112
	addi	a4,a4,-48
	add	a4,a4,s0
	ld	a1,200(a5)
	ld	a2,208(a5)
	mv	a0,a4
.LEHB15:
	call	_ZNSt6vectorIlSaIlEEC1ESt16initializer_listIlERKS0_
.LEHE15:
	li	a5,-8192
	addi	a5,a5,216
	addi	a5,a5,-48
	add	a5,a5,s0
	mv	a0,a5
	call	_ZNSt15__new_allocatorIlED2Ev
	nop
	li	a5,-8192
	addi	a5,a5,-48
	add	a5,a5,s0
	lui	a4,%hi(C.7.7)
	addi	a4,a4,%lo(C.7.7)
	sd	a4,224(a5)
	li	a5,-8192
	addi	a5,a5,-48
	add	a5,a5,s0
	li	a4,8
	sd	a4,232(a5)
	li	a5,-8192
	addi	a5,a5,240
	addi	a5,a5,-48
	add	a5,a5,s0
	sd	a5,-864(s0)
	nop
	nop
	li	a5,-8192
	addi	a5,a5,240
	addi	a5,a5,-48
	add	a3,a5,s0
	li	a5,-8192
	addi	a5,a5,-48
	add	a5,a5,s0
	li	a4,-8192
	addi	a4,a4,-136
	addi	a4,a4,-48
	add	a4,a4,s0
	ld	a1,224(a5)
	ld	a2,232(a5)
	mv	a0,a4
.LEHB16:
	call	_ZNSt6vectorIlSaIlEEC1ESt16initializer_listIlERKS0_
.LEHE16:
	li	a5,-8192
	addi	a5,a5,240
	addi	a5,a5,-48
	add	a5,a5,s0
	mv	a0,a5
	call	_ZNSt15__new_allocatorIlED2Ev
	nop
	li	a5,-8192
	addi	a5,a5,-48
	add	a5,a5,s0
	lui	a4,%hi(C.8.8)
	addi	a4,a4,%lo(C.8.8)
	sd	a4,248(a5)
	li	a5,-8192
	addi	a5,a5,-48
	add	a5,a5,s0
	li	a4,8
	sd	a4,256(a5)
	li	a5,-8192
	addi	a5,a5,264
	addi	a5,a5,-48
	add	a5,a5,s0
	sd	a5,-872(s0)
	nop
	nop
	li	a5,-8192
	addi	a5,a5,264
	addi	a5,a5,-48
	add	a3,a5,s0
	li	a5,-8192
	addi	a5,a5,-48
	add	a5,a5,s0
	li	a4,-8192
	addi	a4,a4,-160
	addi	a4,a4,-48
	add	a4,a4,s0
	ld	a1,248(a5)
	ld	a2,256(a5)
	mv	a0,a4
.LEHB17:
	call	_ZNSt6vectorIlSaIlEEC1ESt16initializer_listIlERKS0_
.LEHE17:
	li	a5,-8192
	addi	a5,a5,264
	addi	a5,a5,-48
	add	a5,a5,s0
	mv	a0,a5
	call	_ZNSt15__new_allocatorIlED2Ev
	nop
	li	a5,-8192
	addi	a5,a5,-48
	add	a5,a5,s0
	lui	a4,%hi(C.9.9)
	addi	a4,a4,%lo(C.9.9)
	sd	a4,272(a5)
	li	a5,-8192
	addi	a5,a5,-48
	add	a5,a5,s0
	li	a4,8
	sd	a4,280(a5)
	li	a5,-8192
	addi	a5,a5,288
	addi	a5,a5,-48
	add	a5,a5,s0
	sd	a5,-880(s0)
	nop
	nop
	li	a5,-8192
	addi	a5,a5,288
	addi	a5,a5,-48
	add	a3,a5,s0
	li	a5,-8192
	addi	a5,a5,-48
	add	a5,a5,s0
	li	a4,-8192
	addi	a4,a4,-184
	addi	a4,a4,-48
	add	a4,a4,s0
	ld	a1,272(a5)
	ld	a2,280(a5)
	mv	a0,a4
.LEHB18:
	call	_ZNSt6vectorIlSaIlEEC1ESt16initializer_listIlERKS0_
.LEHE18:
	li	a5,-8192
	addi	a5,a5,288
	addi	a5,a5,-48
	add	a5,a5,s0
	mv	a0,a5
	call	_ZNSt15__new_allocatorIlED2Ev
	nop
	li	a5,-8192
	addi	a5,a5,-48
	add	a5,a5,s0
	lui	a4,%hi(C.10.10)
	addi	a4,a4,%lo(C.10.10)
	sd	a4,296(a5)
	li	a5,-8192
	addi	a5,a5,-48
	add	a5,a5,s0
	li	a4,8
	sd	a4,304(a5)
	li	a5,-8192
	addi	a5,a5,312
	addi	a5,a5,-48
	add	a5,a5,s0
	sd	a5,-888(s0)
	nop
	nop
	li	a5,-8192
	addi	a5,a5,312
	addi	a5,a5,-48
	add	a3,a5,s0
	li	a5,-8192
	addi	a5,a5,-48
	add	a5,a5,s0
	li	a4,-8192
	addi	a4,a4,-208
	addi	a4,a4,-48
	add	a4,a4,s0
	ld	a1,296(a5)
	ld	a2,304(a5)
	mv	a0,a4
.LEHB19:
	call	_ZNSt6vectorIlSaIlEEC1ESt16initializer_listIlERKS0_
.LEHE19:
	li	a5,-8192
	addi	a5,a5,312
	addi	a5,a5,-48
	add	a5,a5,s0
	mv	a0,a5
	call	_ZNSt15__new_allocatorIlED2Ev
	nop
	li	a5,-8192
	addi	a5,a5,-48
	add	a5,a5,s0
	lui	a4,%hi(C.11.11)
	addi	a4,a4,%lo(C.11.11)
	sd	a4,320(a5)
	li	a5,-8192
	addi	a5,a5,-48
	add	a5,a5,s0
	li	a4,4
	sd	a4,328(a5)
	li	a5,-8192
	addi	a5,a5,336
	addi	a5,a5,-48
	add	a5,a5,s0
	sd	a5,-896(s0)
	nop
	nop
	li	a5,-8192
	addi	a5,a5,336
	addi	a5,a5,-48
	add	a3,a5,s0
	li	a5,-8192
	addi	a5,a5,-48
	add	a5,a5,s0
	li	a4,-8192
	addi	a4,a4,-232
	addi	a4,a4,-48
	add	a4,a4,s0
	ld	a1,320(a5)
	ld	a2,328(a5)
	mv	a0,a4
.LEHB20:
	call	_ZNSt6vectorIlSaIlEEC1ESt16initializer_listIlERKS0_
.LEHE20:
	li	a5,-8192
	addi	a5,a5,336
	addi	a5,a5,-48
	add	a5,a5,s0
	mv	a0,a5
	call	_ZNSt15__new_allocatorIlED2Ev
	nop
	li	a5,-8192
	addi	a5,a5,360
	addi	a5,a5,-48
	add	s3,a5,s0
	li	s1,4
	mv	a0,s3
	li	a5,-8192
	addi	a5,a5,-48
	add	a5,a5,s0
	lui	a4,%hi(C.13.12)
	addi	a4,a4,%lo(C.13.12)
	sd	a4,480(a5)
	li	a5,-8192
	addi	a5,a5,-48
	add	a5,a5,s0
	li	a4,3
	sd	a4,488(a5)
	li	a5,-8192
	addi	a5,a5,496
	addi	a5,a5,-48
	add	a5,a5,s0
	sd	a5,-904(s0)
	nop
	nop
	li	a5,-8192
	addi	a5,a5,496
	addi	a5,a5,-48
	add	a4,a5,s0
	li	a5,-8192
	addi	a5,a5,-48
	add	a5,a5,s0
	mv	a3,a4
	ld	a1,480(a5)
	ld	a2,488(a5)
.LEHB21:
	call	_ZNSt6vectorIlSaIlEEC1ESt16initializer_listIlERKS0_
	addi	s2,s3,24
	addi	s1,s1,-1
	li	a5,-8192
	addi	a5,a5,-48
	add	a5,a5,s0
	lui	a4,%hi(C.14.13)
	addi	a4,a4,%lo(C.14.13)
	sd	a4,504(a5)
	li	a5,-8192
	addi	a5,a5,-48
	add	a5,a5,s0
	li	a4,3
	sd	a4,512(a5)
	li	a5,-8192
	addi	a5,a5,496
	addi	a5,a5,-48
	add	a4,a5,s0
	li	a5,-8192
	addi	a5,a5,-48
	add	a5,a5,s0
	mv	a3,a4
	ld	a1,504(a5)
	ld	a2,512(a5)
	mv	a0,s2
	call	_ZNSt6vectorIlSaIlEEC1ESt16initializer_listIlERKS0_
	addi	s2,s2,24
	addi	s1,s1,-1
	li	a5,-8192
	addi	a5,a5,-48
	add	a5,a5,s0
	lui	a4,%hi(C.15.14)
	addi	a4,a4,%lo(C.15.14)
	sd	a4,520(a5)
	li	a5,-8192
	addi	a5,a5,-48
	add	a5,a5,s0
	li	a4,3
	sd	a4,528(a5)
	li	a5,-8192
	addi	a5,a5,496
	addi	a5,a5,-48
	add	a4,a5,s0
	li	a5,-8192
	addi	a5,a5,-48
	add	a5,a5,s0
	mv	a3,a4
	ld	a1,520(a5)
	ld	a2,528(a5)
	mv	a0,s2
	call	_ZNSt6vectorIlSaIlEEC1ESt16initializer_listIlERKS0_
	addi	s2,s2,24
	addi	s1,s1,-1
	li	a5,-8192
	addi	a5,a5,-48
	add	a5,a5,s0
	lui	a4,%hi(C.16.15)
	addi	a4,a4,%lo(C.16.15)
	sd	a4,536(a5)
	li	a5,-8192
	addi	a5,a5,-48
	add	a5,a5,s0
	li	a4,3
	sd	a4,544(a5)
	li	a5,-8192
	addi	a5,a5,496
	addi	a5,a5,-48
	add	a4,a5,s0
	li	a5,-8192
	addi	a5,a5,-48
	add	a5,a5,s0
	mv	a3,a4
	ld	a1,536(a5)
	ld	a2,544(a5)
	mv	a0,s2
	call	_ZNSt6vectorIlSaIlEEC1ESt16initializer_listIlERKS0_
	addi	a0,s2,24
	addi	s1,s1,-1
	li	a5,-8192
	addi	a5,a5,-48
	add	a5,a5,s0
	lui	a4,%hi(C.17.16)
	addi	a4,a4,%lo(C.17.16)
	sd	a4,552(a5)
	li	a5,-8192
	addi	a5,a5,-48
	add	a5,a5,s0
	li	a4,3
	sd	a4,560(a5)
	li	a5,-8192
	addi	a5,a5,496
	addi	a5,a5,-48
	add	a4,a5,s0
	li	a5,-8192
	addi	a5,a5,-48
	add	a5,a5,s0
	mv	a3,a4
	ld	a1,552(a5)
	ld	a2,560(a5)
	call	_ZNSt6vectorIlSaIlEEC1ESt16initializer_listIlERKS0_
.LEHE21:
	li	s1,4
	li	a5,-8192
	addi	a5,a5,-48
	add	a5,a5,s0
	li	a4,-8192
	addi	a4,a4,360
	addi	a4,a4,-48
	add	a4,a4,s0
	sd	a4,344(a5)
	li	a5,-8192
	addi	a5,a5,-48
	add	a5,a5,s0
	li	a4,5
	sd	a4,352(a5)
	li	a5,-8192
	addi	a5,a5,568
	addi	a5,a5,-48
	add	a5,a5,s0
	sd	a5,-912(s0)
	nop
	nop
	li	a5,-8192
	addi	a5,a5,568
	addi	a5,a5,-48
	add	a3,a5,s0
	li	a5,-8192
	addi	a5,a5,-48
	add	a5,a5,s0
	li	a4,-8192
	addi	a4,a4,-256
	addi	a4,a4,-48
	add	a4,a4,s0
	ld	a1,344(a5)
	ld	a2,352(a5)
	mv	a0,a4
.LEHB22:
	call	_ZNSt6vectorIS_IlSaIlEESaIS1_EEC1ESt16initializer_listIS1_ERKS2_
.LEHE22:
	li	a5,-8192
	addi	a5,a5,568
	addi	a5,a5,-48
	add	a5,a5,s0
	mv	a0,a5
	call	_ZNSt15__new_allocatorISt6vectorIlSaIlEEED2Ev
	nop
	li	a5,-8192
	addi	a5,a5,360
	addi	a5,a5,-48
	add	s1,a5,s0
	addi	s1,s1,120
.L202:
	li	a5,-8192
	addi	a5,a5,360
	addi	a5,a5,-48
	add	a5,a5,s0
	beq	s1,a5,.L201
	addi	s1,s1,-24
	mv	a0,s1
	call	_ZNSt6vectorIlSaIlEED1Ev
	j	.L202
.L201:
	li	a5,-8192
	addi	a5,a5,496
	addi	a5,a5,-48
	add	a5,a5,s0
	mv	a0,a5
	call	_ZNSt15__new_allocatorIlED2Ev
	nop
	li	a5,-8192
	addi	a5,a5,-48
	add	a5,a5,s0
	lui	a4,%hi(C.18.17)
	addi	a4,a4,%lo(C.18.17)
	sd	a4,576(a5)
	li	a5,-8192
	addi	a5,a5,-48
	add	a5,a5,s0
	li	a4,8
	sd	a4,584(a5)
	li	a5,-8192
	addi	a5,a5,592
	addi	a5,a5,-48
	add	a5,a5,s0
	sd	a5,-920(s0)
	nop
	nop
	li	a5,-8192
	addi	a5,a5,592
	addi	a5,a5,-48
	add	a3,a5,s0
	li	a5,-8192
	addi	a5,a5,-48
	add	a5,a5,s0
	li	a4,-8192
	addi	a4,a4,-280
	addi	a4,a4,-48
	add	a4,a4,s0
	ld	a1,576(a5)
	ld	a2,584(a5)
	mv	a0,a4
.LEHB23:
	call	_ZNSt6vectorIlSaIlEEC1ESt16initializer_listIlERKS0_
.LEHE23:
	li	a5,-8192
	addi	a5,a5,592
	addi	a5,a5,-48
	add	a5,a5,s0
	mv	a0,a5
	call	_ZNSt15__new_allocatorIlED2Ev
	nop
	li	a5,-8192
	addi	a5,a5,-48
	add	a5,a5,s0
	lui	a4,%hi(C.19.18)
	addi	a4,a4,%lo(C.19.18)
	sd	a4,600(a5)
	li	a5,-8192
	addi	a5,a5,-48
	add	a5,a5,s0
	li	a4,8
	sd	a4,608(a5)
	li	a5,-8192
	addi	a5,a5,616
	addi	a5,a5,-48
	add	a5,a5,s0
	sd	a5,-928(s0)
	nop
	nop
	li	a5,-8192
	addi	a5,a5,616
	addi	a5,a5,-48
	add	a3,a5,s0
	li	a5,-8192
	addi	a5,a5,-48
	add	a5,a5,s0
	li	a4,-8192
	addi	a4,a4,-304
	addi	a4,a4,-48
	add	a4,a4,s0
	ld	a1,600(a5)
	ld	a2,608(a5)
	mv	a0,a4
.LEHB24:
	call	_ZNSt6vectorIlSaIlEEC1ESt16initializer_listIlERKS0_
.LEHE24:
	li	a5,-8192
	addi	a5,a5,616
	addi	a5,a5,-48
	add	a5,a5,s0
	mv	a0,a5
	call	_ZNSt15__new_allocatorIlED2Ev
	nop
	li	a5,-8192
	addi	a5,a5,-48
	add	a5,a5,s0
	lui	a4,%hi(C.20.19)
	addi	a4,a4,%lo(C.20.19)
	sd	a4,624(a5)
	li	a5,-8192
	addi	a5,a5,-48
	add	a5,a5,s0
	li	a4,8
	sd	a4,632(a5)
	li	a5,-8192
	addi	a5,a5,640
	addi	a5,a5,-48
	add	a5,a5,s0
	sd	a5,-936(s0)
	nop
	nop
	li	a5,-8192
	addi	a5,a5,640
	addi	a5,a5,-48
	add	a3,a5,s0
	li	a5,-8192
	addi	a5,a5,-48
	add	a5,a5,s0
	li	a4,-8192
	addi	a4,a4,-328
	addi	a4,a4,-48
	add	a4,a4,s0
	ld	a1,624(a5)
	ld	a2,632(a5)
	mv	a0,a4
.LEHB25:
	call	_ZNSt6vectorIlSaIlEEC1ESt16initializer_listIlERKS0_
.LEHE25:
	li	a5,-8192
	addi	a5,a5,640
	addi	a5,a5,-48
	add	a5,a5,s0
	mv	a0,a5
	call	_ZNSt15__new_allocatorIlED2Ev
	nop
	li	a5,-8192
	addi	a5,a5,-48
	add	a5,a5,s0
	lui	a4,%hi(C.21.20)
	addi	a4,a4,%lo(C.21.20)
	sd	a4,648(a5)
	li	a5,-8192
	addi	a5,a5,-48
	add	a5,a5,s0
	li	a4,8
	sd	a4,656(a5)
	li	a5,-8192
	addi	a5,a5,664
	addi	a5,a5,-48
	add	a5,a5,s0
	sd	a5,-944(s0)
	nop
	nop
	li	a5,-8192
	addi	a5,a5,664
	addi	a5,a5,-48
	add	a3,a5,s0
	li	a5,-8192
	addi	a5,a5,-48
	add	a5,a5,s0
	li	a4,-8192
	addi	a4,a4,-352
	addi	a4,a4,-48
	add	a4,a4,s0
	ld	a1,648(a5)
	ld	a2,656(a5)
	mv	a0,a4
.LEHB26:
	call	_ZNSt6vectorIlSaIlEEC1ESt16initializer_listIlERKS0_
.LEHE26:
	li	a5,-8192
	addi	a5,a5,664
	addi	a5,a5,-48
	add	a5,a5,s0
	mv	a0,a5
	call	_ZNSt15__new_allocatorIlED2Ev
	nop
	li	a5,-8192
	addi	a5,a5,-48
	add	a5,a5,s0
	lui	a4,%hi(C.22.21)
	addi	a4,a4,%lo(C.22.21)
	sd	a4,672(a5)
	li	a5,-8192
	addi	a5,a5,-48
	add	a5,a5,s0
	li	a4,8
	sd	a4,680(a5)
	li	a5,-8192
	addi	a5,a5,688
	addi	a5,a5,-48
	add	a5,a5,s0
	sd	a5,-952(s0)
	nop
	nop
	li	a5,-8192
	addi	a5,a5,688
	addi	a5,a5,-48
	add	a3,a5,s0
	li	a5,-8192
	addi	a5,a5,-48
	add	a5,a5,s0
	li	a4,-8192
	addi	a4,a4,-376
	addi	a4,a4,-48
	add	a4,a4,s0
	ld	a1,672(a5)
	ld	a2,680(a5)
	mv	a0,a4
.LEHB27:
	call	_ZNSt6vectorIlSaIlEEC1ESt16initializer_listIlERKS0_
.LEHE27:
	li	a5,-8192
	addi	a5,a5,688
	addi	a5,a5,-48
	add	a5,a5,s0
	mv	a0,a5
	call	_ZNSt15__new_allocatorIlED2Ev
	nop
	li	a5,-8192
	addi	a5,a5,-48
	add	a5,a5,s0
	lui	a4,%hi(C.23.22)
	addi	a4,a4,%lo(C.23.22)
	sd	a4,696(a5)
	li	a5,-8192
	addi	a5,a5,-48
	add	a5,a5,s0
	li	a4,8
	sd	a4,704(a5)
	li	a5,-8192
	addi	a5,a5,712
	addi	a5,a5,-48
	add	a5,a5,s0
	sd	a5,-960(s0)
	nop
	nop
	li	a5,-8192
	addi	a5,a5,712
	addi	a5,a5,-48
	add	a3,a5,s0
	li	a5,-8192
	addi	a5,a5,-48
	add	a5,a5,s0
	li	a4,-8192
	addi	a4,a4,-400
	addi	a4,a4,-48
	add	a4,a4,s0
	ld	a1,696(a5)
	ld	a2,704(a5)
	mv	a0,a4
.LEHB28:
	call	_ZNSt6vectorIlSaIlEEC1ESt16initializer_listIlERKS0_
.LEHE28:
	li	a5,-8192
	addi	a5,a5,712
	addi	a5,a5,-48
	add	a5,a5,s0
	mv	a0,a5
	call	_ZNSt15__new_allocatorIlED2Ev
	nop
	li	a5,-8192
	addi	a5,a5,-48
	add	a5,a5,s0
	lui	a4,%hi(C.24.23)
	addi	a4,a4,%lo(C.24.23)
	sd	a4,720(a5)
	li	a5,-8192
	addi	a5,a5,-48
	add	a5,a5,s0
	li	a4,8
	sd	a4,728(a5)
	li	a5,-8192
	addi	a5,a5,736
	addi	a5,a5,-48
	add	a5,a5,s0
	sd	a5,-968(s0)
	nop
	nop
	li	a5,-8192
	addi	a5,a5,736
	addi	a5,a5,-48
	add	a3,a5,s0
	li	a5,-8192
	addi	a5,a5,-48
	add	a5,a5,s0
	li	a4,-8192
	addi	a4,a4,-424
	addi	a4,a4,-48
	add	a4,a4,s0
	ld	a1,720(a5)
	ld	a2,728(a5)
	mv	a0,a4
.LEHB29:
	call	_ZNSt6vectorIlSaIlEEC1ESt16initializer_listIlERKS0_
.LEHE29:
	li	a5,-8192
	addi	a5,a5,736
	addi	a5,a5,-48
	add	a5,a5,s0
	mv	a0,a5
	call	_ZNSt15__new_allocatorIlED2Ev
	nop
	li	a5,-8192
	addi	a5,a5,-48
	add	a5,a5,s0
	lui	a4,%hi(C.25.24)
	addi	a4,a4,%lo(C.25.24)
	sd	a4,744(a5)
	li	a5,-8192
	addi	a5,a5,-48
	add	a5,a5,s0
	li	a4,8
	sd	a4,752(a5)
	li	a5,-8192
	addi	a5,a5,760
	addi	a5,a5,-48
	add	a5,a5,s0
	sd	a5,-976(s0)
	nop
	nop
	li	a5,-8192
	addi	a5,a5,760
	addi	a5,a5,-48
	add	a3,a5,s0
	li	a5,-8192
	addi	a5,a5,-48
	add	a5,a5,s0
	li	a4,-8192
	addi	a4,a4,-448
	addi	a4,a4,-48
	add	a4,a4,s0
	ld	a1,744(a5)
	ld	a2,752(a5)
	mv	a0,a4
.LEHB30:
	call	_ZNSt6vectorIlSaIlEEC1ESt16initializer_listIlERKS0_
.LEHE30:
	li	a5,-8192
	addi	a5,a5,760
	addi	a5,a5,-48
	add	a5,a5,s0
	mv	a0,a5
	call	_ZNSt15__new_allocatorIlED2Ev
	nop
	li	a5,-8192
	addi	a5,a5,-48
	add	a5,a5,s0
	lui	a4,%hi(C.26.25)
	addi	a4,a4,%lo(C.26.25)
	sd	a4,768(a5)
	li	a5,-8192
	addi	a5,a5,-48
	add	a5,a5,s0
	li	a4,8
	sd	a4,776(a5)
	li	a5,-8192
	addi	a5,a5,784
	addi	a5,a5,-48
	add	a5,a5,s0
	sd	a5,-984(s0)
	nop
	nop
	li	a5,-8192
	addi	a5,a5,784
	addi	a5,a5,-48
	add	a3,a5,s0
	li	a5,-8192
	addi	a5,a5,-48
	add	a5,a5,s0
	li	a4,-8192
	addi	a4,a4,-472
	addi	a4,a4,-48
	add	a4,a4,s0
	ld	a1,768(a5)
	ld	a2,776(a5)
	mv	a0,a4
.LEHB31:
	call	_ZNSt6vectorIlSaIlEEC1ESt16initializer_listIlERKS0_
.LEHE31:
	li	a5,-8192
	addi	a5,a5,784
	addi	a5,a5,-48
	add	a5,a5,s0
	mv	a0,a5
	call	_ZNSt15__new_allocatorIlED2Ev
	nop
	li	a5,32
	sd	a5,-408(s0)
	li	a5,4
	sd	a5,-416(s0)
	li	a5,8
	sd	a5,-424(s0)
	li	a5,37
	sd	a5,-432(s0)
	li	a5,1679360
	addi	a5,a5,-1039
	sd	a5,-440(s0)
	li	a5,11
	sd	a5,-448(s0)
	ld	a5,-408(s0)
	addi	a5,a5,1
	sd	a5,-456(s0)
	ld	s1,-432(s0)
	ld	a4,-432(s0)
	li	a5,-8192
	addi	a5,a5,-48
	add	a5,a5,s0
	sd	zero,816(a5)
	li	a5,-8192
	addi	a5,a5,824
	addi	a5,a5,-48
	add	a5,a5,s0
	sd	a5,-992(s0)
	nop
	nop
	li	a5,-8192
	addi	a5,a5,824
	addi	a5,a5,-48
	add	a3,a5,s0
	li	a5,-8192
	addi	a5,a5,816
	addi	a5,a5,-48
	add	a2,a5,s0
	li	a5,-8192
	addi	a5,a5,792
	addi	a5,a5,-48
	add	a5,a5,s0
	mv	a1,a4
	mv	a0,a5
.LEHB32:
	call	_ZNSt6vectorIlSaIlEEC1EmRKlRKS0_
.LEHE32:
	li	a5,-8192
	addi	a5,a5,832
	addi	a5,a5,-48
	add	a5,a5,s0
	sd	a5,-1000(s0)
	nop
	nop
	li	a5,-8192
	addi	a5,a5,832
	addi	a5,a5,-48
	add	a3,a5,s0
	li	a5,-8192
	addi	a5,a5,792
	addi	a5,a5,-48
	add	a4,a5,s0
	li	a5,-8192
	addi	a5,a5,-496
	addi	a5,a5,-48
	add	a5,a5,s0
	mv	a2,a4
	mv	a1,s1
	mv	a0,a5
.LEHB33:
	call	_ZNSt6vectorIS_IlSaIlEESaIS1_EEC1EmRKS1_RKS2_
.LEHE33:
	li	a5,-8192
	addi	a5,a5,832
	addi	a5,a5,-48
	add	a5,a5,s0
	mv	a0,a5
	call	_ZNSt15__new_allocatorISt6vectorIlSaIlEEED2Ev
	nop
	li	a5,-8192
	addi	a5,a5,792
	addi	a5,a5,-48
	add	a5,a5,s0
	mv	a0,a5
	call	_ZNSt6vectorIlSaIlEED1Ev
	li	a5,-8192
	addi	a5,a5,824
	addi	a5,a5,-48
	add	a5,a5,s0
	mv	a0,a5
	call	_ZNSt15__new_allocatorIlED2Ev
	nop
	ld	s1,-432(s0)
	ld	a4,-432(s0)
	li	a5,-8192
	addi	a5,a5,-48
	add	a5,a5,s0
	sd	zero,864(a5)
	li	a5,-8192
	addi	a5,a5,872
	addi	a5,a5,-48
	add	a5,a5,s0
	sd	a5,-1008(s0)
	nop
	nop
	li	a5,-8192
	addi	a5,a5,872
	addi	a5,a5,-48
	add	a3,a5,s0
	li	a5,-8192
	addi	a5,a5,864
	addi	a5,a5,-48
	add	a2,a5,s0
	li	a5,-8192
	addi	a5,a5,840
	addi	a5,a5,-48
	add	a5,a5,s0
	mv	a1,a4
	mv	a0,a5
.LEHB34:
	call	_ZNSt6vectorIlSaIlEEC1EmRKlRKS0_
.LEHE34:
	li	a5,-8192
	addi	a5,a5,880
	addi	a5,a5,-48
	add	a5,a5,s0
	sd	a5,-1016(s0)
	nop
	nop
	li	a5,-8192
	addi	a5,a5,880
	addi	a5,a5,-48
	add	a3,a5,s0
	li	a5,-8192
	addi	a5,a5,840
	addi	a5,a5,-48
	add	a4,a5,s0
	li	a5,-8192
	addi	a5,a5,-520
	addi	a5,a5,-48
	add	a5,a5,s0
	mv	a2,a4
	mv	a1,s1
	mv	a0,a5
.LEHB35:
	call	_ZNSt6vectorIS_IlSaIlEESaIS1_EEC1EmRKS1_RKS2_
.LEHE35:
	li	a5,-8192
	addi	a5,a5,880
	addi	a5,a5,-48
	add	a5,a5,s0
	mv	a0,a5
	call	_ZNSt15__new_allocatorISt6vectorIlSaIlEEED2Ev
	nop
	li	a5,-8192
	addi	a5,a5,840
	addi	a5,a5,-48
	add	a5,a5,s0
	mv	a0,a5
	call	_ZNSt6vectorIlSaIlEED1Ev
	li	a5,-8192
	addi	a5,a5,872
	addi	a5,a5,-48
	add	a5,a5,s0
	mv	a0,a5
	call	_ZNSt15__new_allocatorIlED2Ev
	nop
	ld	s1,-432(s0)
	ld	a4,-432(s0)
	li	a5,-8192
	addi	a5,a5,-48
	add	a5,a5,s0
	sd	zero,912(a5)
	li	a5,-8192
	addi	a5,a5,920
	addi	a5,a5,-48
	add	a5,a5,s0
	sd	a5,-1024(s0)
	nop
	nop
	li	a5,-8192
	addi	a5,a5,920
	addi	a5,a5,-48
	add	a3,a5,s0
	li	a5,-8192
	addi	a5,a5,912
	addi	a5,a5,-48
	add	a2,a5,s0
	li	a5,-8192
	addi	a5,a5,888
	addi	a5,a5,-48
	add	a5,a5,s0
	mv	a1,a4
	mv	a0,a5
.LEHB36:
	call	_ZNSt6vectorIlSaIlEEC1EmRKlRKS0_
.LEHE36:
	li	a5,-8192
	addi	a5,a5,928
	addi	a5,a5,-48
	add	a5,a5,s0
	sd	a5,-1032(s0)
	nop
	nop
	li	a5,-8192
	addi	a5,a5,928
	addi	a5,a5,-48
	add	a3,a5,s0
	li	a5,-8192
	addi	a5,a5,888
	addi	a5,a5,-48
	add	a4,a5,s0
	li	a5,-8192
	addi	a5,a5,-544
	addi	a5,a5,-48
	add	a5,a5,s0
	mv	a2,a4
	mv	a1,s1
	mv	a0,a5
.LEHB37:
	call	_ZNSt6vectorIS_IlSaIlEESaIS1_EEC1EmRKS1_RKS2_
.LEHE37:
	li	a5,-8192
	addi	a5,a5,928
	addi	a5,a5,-48
	add	a5,a5,s0
	mv	a0,a5
	call	_ZNSt15__new_allocatorISt6vectorIlSaIlEEED2Ev
	nop
	li	a5,-8192
	addi	a5,a5,888
	addi	a5,a5,-48
	add	a5,a5,s0
	mv	a0,a5
	call	_ZNSt6vectorIlSaIlEED1Ev
	li	a5,-8192
	addi	a5,a5,920
	addi	a5,a5,-48
	add	a5,a5,s0
	mv	a0,a5
	call	_ZNSt15__new_allocatorIlED2Ev
	nop
	ld	a5,-408(s0)
	sd	a5,-464(s0)
	sd	zero,-56(s0)
	j	.L203
.L204:
	ld	a4,-56(s0)
	li	a5,-8192
	addi	a5,a5,-232
	addi	a5,a5,-48
	add	a5,a5,s0
	mv	a1,a4
	mv	a0,a5
	call	_ZNSt6vectorIlSaIlEEixEm
	mv	a5,a0
	ld	a5,0(a5)
	sd	a5,-800(s0)
	ld	a4,-56(s0)
	li	a5,-8192
	addi	a5,a5,-496
	addi	a5,a5,-48
	add	a5,a5,s0
	mv	a1,a4
	mv	a0,a5
	call	_ZNSt6vectorIS_IlSaIlEESaIS1_EEixEm
	mv	a4,a0
	ld	a5,-800(s0)
	mv	a1,a5
	mv	a0,a4
	call	_ZNSt6vectorIlSaIlEEixEm
	mv	a4,a0
	li	a5,1
	sd	a5,0(a4)
	ld	a5,-56(s0)
	addi	a5,a5,1
	sd	a5,-56(s0)
.L203:
	li	a5,-8192
	addi	a5,a5,-232
	addi	a5,a5,-48
	add	a5,a5,s0
	mv	a0,a5
	call	_ZNKSt6vectorIlSaIlEE4sizeEv
	mv	a4,a0
	ld	a5,-56(s0)
	sgtu	a5,a4,a5
	andi	a5,a5,0xff
	bne	a5,zero,.L204
	sd	zero,-64(s0)
	j	.L205
.L206:
	ld	a4,-64(s0)
	li	a5,-8192
	addi	a5,a5,-256
	addi	a5,a5,-48
	add	a5,a5,s0
	mv	a1,a4
	mv	a0,a5
	call	_ZNSt6vectorIS_IlSaIlEESaIS1_EEixEm
	mv	a5,a0
	li	a1,0
	mv	a0,a5
	call	_ZNSt6vectorIlSaIlEEixEm
	mv	a5,a0
	ld	a5,0(a5)
	sd	a5,-776(s0)
	ld	a4,-64(s0)
	li	a5,-8192
	addi	a5,a5,-256
	addi	a5,a5,-48
	add	a5,a5,s0
	mv	a1,a4
	mv	a0,a5
	call	_ZNSt6vectorIS_IlSaIlEESaIS1_EEixEm
	mv	a5,a0
	li	a1,1
	mv	a0,a5
	call	_ZNSt6vectorIlSaIlEEixEm
	mv	a5,a0
	ld	a5,0(a5)
	sd	a5,-784(s0)
	ld	a4,-64(s0)
	li	a5,-8192
	addi	a5,a5,-256
	addi	a5,a5,-48
	add	a5,a5,s0
	mv	a1,a4
	mv	a0,a5
	call	_ZNSt6vectorIS_IlSaIlEESaIS1_EEixEm
	mv	a5,a0
	li	a1,2
	mv	a0,a5
	call	_ZNSt6vectorIlSaIlEEixEm
	mv	a5,a0
	ld	a5,0(a5)
	sd	a5,-792(s0)
	ld	s1,-792(s0)
	ld	a4,-776(s0)
	li	a5,-8192
	addi	a5,a5,-520
	addi	a5,a5,-48
	add	a5,a5,s0
	mv	a1,a4
	mv	a0,a5
	call	_ZNSt6vectorIS_IlSaIlEESaIS1_EEixEm
	mv	a4,a0
	ld	a5,-784(s0)
	mv	a1,a5
	mv	a0,a4
	call	_ZNSt6vectorIlSaIlEEixEm
	mv	a5,a0
	sd	s1,0(a5)
	ld	a5,-64(s0)
	addi	a5,a5,1
	sd	a5,-64(s0)
.L205:
	li	a5,-8192
	addi	a5,a5,-256
	addi	a5,a5,-48
	add	a5,a5,s0
	mv	a0,a5
	call	_ZNKSt6vectorIS_IlSaIlEESaIS1_EE4sizeEv
	mv	a4,a0
	ld	a5,-64(s0)
	sgtu	a5,a4,a5
	andi	a5,a5,0xff
	bne	a5,zero,.L206
	ld	a4,-432(s0)
	ld	a5,-416(s0)
	sub	a5,a4,a5
	sd	a5,-72(s0)
	j	.L207
.L208:
	ld	a4,-72(s0)
	li	a5,-8192
	addi	a5,a5,-544
	addi	a5,a5,-48
	add	a5,a5,s0
	mv	a1,a4
	mv	a0,a5
	call	_ZNSt6vectorIS_IlSaIlEESaIS1_EEixEm
	mv	a4,a0
	ld	a5,-72(s0)
	mv	a1,a5
	mv	a0,a4
	call	_ZNSt6vectorIlSaIlEEixEm
	mv	a4,a0
	li	a5,1
	sd	a5,0(a4)
	ld	a5,-72(s0)
	addi	a5,a5,1
	sd	a5,-72(s0)
.L207:
	ld	a4,-72(s0)
	ld	a5,-432(s0)
	blt	a4,a5,.L208
	li	a5,-8192
	addi	a5,a5,968
	addi	a5,a5,-48
	add	a5,a5,s0
	sd	a5,-1040(s0)
	nop
	nop
	li	a5,-8192
	addi	a5,a5,968
	addi	a5,a5,-48
	add	a3,a5,s0
	li	a5,-8192
	addi	a5,a5,936
	addi	a5,a5,-48
	add	a4,a5,s0
	mv	a2,a3
	lui	a5,%hi(.LC45)
	addi	a1,a5,%lo(.LC45)
	mv	a0,a4
.LEHB38:
	call	_ZNSt7__cxx1112basic_stringIcSt11char_traitsIcESaIcEEC1IS3_EEPKcRKS3_
.LEHE38:
	li	a5,-8192
	addi	a5,a5,936
	addi	a5,a5,-48
	add	a4,a5,s0
	li	a5,-8192
	addi	a5,a5,-496
	addi	a5,a5,-48
	add	a5,a5,s0
	mv	a1,a4
	mv	a0,a5
.LEHB39:
	call	_ZN10Polynomial11printMatrixERSt6vectorIS0_IlSaIlEESaIS2_EERKNSt7__cxx1112basic_stringIcSt11char_traitsIcESaIcEEE
.LEHE39:
	li	a5,-8192
	addi	a5,a5,936
	addi	a5,a5,-48
	add	a5,a5,s0
	mv	a0,a5
	call	_ZNSt7__cxx1112basic_stringIcSt11char_traitsIcESaIcEED1Ev
	li	a5,-8192
	addi	a5,a5,968
	addi	a5,a5,-48
	add	a5,a5,s0
	mv	a0,a5
	call	_ZNSt15__new_allocatorIcED2Ev
	nop
	li	a5,-8192
	addi	a5,a5,1008
	addi	a5,a5,-48
	add	a5,a5,s0
	sd	a5,-1048(s0)
	nop
	nop
	li	a5,-8192
	addi	a5,a5,1008
	addi	a5,a5,-48
	add	a3,a5,s0
	li	a5,-8192
	addi	a5,a5,976
	addi	a5,a5,-48
	add	a4,a5,s0
	mv	a2,a3
	lui	a5,%hi(.LC46)
	addi	a1,a5,%lo(.LC46)
	mv	a0,a4
.LEHB40:
	call	_ZNSt7__cxx1112basic_stringIcSt11char_traitsIcESaIcEEC1IS3_EEPKcRKS3_
.LEHE40:
	li	a5,-8192
	addi	a5,a5,976
	addi	a5,a5,-48
	add	a4,a5,s0
	li	a5,-8192
	addi	a5,a5,-520
	addi	a5,a5,-48
	add	a5,a5,s0
	mv	a1,a4
	mv	a0,a5
.LEHB41:
	call	_ZN10Polynomial11printMatrixERSt6vectorIS0_IlSaIlEESaIS2_EERKNSt7__cxx1112basic_stringIcSt11char_traitsIcESaIcEEE
.LEHE41:
	li	a5,-8192
	addi	a5,a5,976
	addi	a5,a5,-48
	add	a5,a5,s0
	mv	a0,a5
	call	_ZNSt7__cxx1112basic_stringIcSt11char_traitsIcESaIcEED1Ev
	li	a5,-8192
	addi	a5,a5,1008
	addi	a5,a5,-48
	add	a5,a5,s0
	mv	a0,a5
	call	_ZNSt15__new_allocatorIcED2Ev
	nop
	li	a5,-8192
	addi	a5,a5,1048
	addi	a5,a5,-48
	add	a5,a5,s0
	sd	a5,-1056(s0)
	nop
	nop
	li	a5,-8192
	addi	a5,a5,1048
	addi	a5,a5,-48
	add	a3,a5,s0
	li	a5,-8192
	addi	a5,a5,1016
	addi	a5,a5,-48
	add	a4,a5,s0
	mv	a2,a3
	lui	a5,%hi(.LC47)
	addi	a1,a5,%lo(.LC47)
	mv	a0,a4
.LEHB42:
	call	_ZNSt7__cxx1112basic_stringIcSt11char_traitsIcESaIcEEC1IS3_EEPKcRKS3_
.LEHE42:
	li	a5,-8192
	addi	a5,a5,1016
	addi	a5,a5,-48
	add	a4,a5,s0
	li	a5,-8192
	addi	a5,a5,-544
	addi	a5,a5,-48
	add	a5,a5,s0
	mv	a1,a4
	mv	a0,a5
.LEHB43:
	call	_ZN10Polynomial11printMatrixERSt6vectorIS0_IlSaIlEESaIS2_EERKNSt7__cxx1112basic_stringIcSt11char_traitsIcESaIcEEE
.LEHE43:
	li	a5,-8192
	addi	a5,a5,1016
	addi	a5,a5,-48
	add	a5,a5,s0
	mv	a0,a5
	call	_ZNSt7__cxx1112basic_stringIcSt11char_traitsIcESaIcEED1Ev
	li	a5,-8192
	addi	a5,a5,1048
	addi	a5,a5,-48
	add	a5,a5,s0
	mv	a0,a5
	call	_ZNSt15__new_allocatorIcED2Ev
	nop
	li	a5,-8192
	addi	a5,a5,-568
	addi	a5,a5,-48
	add	a5,a5,s0
	mv	a0,a5
	call	_ZNSt6vectorIlSaIlEEC1Ev
	li	a5,-8192
	addi	a5,a5,-48
	add	a5,a5,s0
	li	a4,1
	sd	a4,1056(a5)
	li	a5,-8192
	addi	a5,a5,1056
	addi	a5,a5,-48
	add	a4,a5,s0
	li	a5,-8192
	addi	a5,a5,-568
	addi	a5,a5,-48
	add	a5,a5,s0
	mv	a1,a4
	mv	a0,a5
.LEHB44:
	call	_ZNSt6vectorIlSaIlEE9push_backEOl
	ld	a5,-440(s0)
	addi	a4,a5,-1
	ld	a5,-432(s0)
	div	a4,a4,a5
	ld	a5,-440(s0)
	rem	a5,a4,a5
	sd	a5,-472(s0)
	ld	a2,-440(s0)
	ld	a1,-472(s0)
	ld	a0,-448(s0)
	call	_ZN10Polynomial5powerElll
	mv	a5,a0
	sd	a5,-480(s0)
	li	a5,1
	sd	a5,-80(s0)
	j	.L209
.L210:
	ld	a2,-440(s0)
	ld	a1,-80(s0)
	ld	a0,-480(s0)
	call	_ZN10Polynomial5powerElll
	mv	a4,a0
	li	a5,-8192
	addi	a5,a5,-48
	add	a5,a5,s0
	sd	a4,1064(a5)
	li	a5,-8192
	addi	a5,a5,1064
	addi	a5,a5,-48
	add	a4,a5,s0
	li	a5,-8192
	addi	a5,a5,-568
	addi	a5,a5,-48
	add	a5,a5,s0
	mv	a1,a4
	mv	a0,a5
	call	_ZNSt6vectorIlSaIlEE9push_backEOl
	ld	a5,-80(s0)
	addi	a5,a5,1
	sd	a5,-80(s0)
.L209:
	ld	a4,-80(s0)
	ld	a5,-432(s0)
	blt	a4,a5,.L210
	lui	a5,%hi(.LC48)
	addi	a1,a5,%lo(.LC48)
	lui	a5,%hi(_ZSt4cout)
	addi	a0,a5,%lo(_ZSt4cout)
	call	_ZStlsISt11char_traitsIcEERSt13basic_ostreamIcT_ES5_PKc
	sd	zero,-88(s0)
	j	.L211
.L212:
	ld	a4,-88(s0)
	li	a5,-8192
	addi	a5,a5,-568
	addi	a5,a5,-48
	add	a5,a5,s0
	mv	a1,a4
	mv	a0,a5
	call	_ZNSt6vectorIlSaIlEEixEm
	mv	a5,a0
	ld	a5,0(a5)
	mv	a1,a5
	lui	a5,%hi(_ZSt4cout)
	addi	a0,a5,%lo(_ZSt4cout)
	call	_ZNSolsEl
	mv	a4,a0
	lui	a5,%hi(.LC49)
	addi	a1,a5,%lo(.LC49)
	mv	a0,a4
	call	_ZStlsISt11char_traitsIcEERSt13basic_ostreamIcT_ES5_PKc
	ld	a5,-88(s0)
	addi	a5,a5,1
	sd	a5,-88(s0)
.L211:
	ld	a4,-88(s0)
	ld	a5,-432(s0)
	blt	a4,a5,.L212
	lui	a5,%hi(_ZSt4endlIcSt11char_traitsIcEERSt13basic_ostreamIT_T0_ES6_)
	addi	a1,a5,%lo(_ZSt4endlIcSt11char_traitsIcEERSt13basic_ostreamIT_T0_ES6_)
	lui	a5,%hi(_ZSt4cout)
	addi	a0,a5,%lo(_ZSt4cout)
	call	_ZNSolsEPFRSoS_E
.LEHE44:
	li	a5,-8192
	addi	a5,a5,-592
	addi	a5,a5,-48
	add	a5,a5,s0
	mv	a0,a5
	call	_ZNSt6vectorIlSaIlEEC1Ev
	li	a5,-8192
	addi	a5,a5,-48
	add	a5,a5,s0
	li	a4,1
	sd	a4,1072(a5)
	li	a5,-8192
	addi	a5,a5,1072
	addi	a5,a5,-48
	add	a4,a5,s0
	li	a5,-8192
	addi	a5,a5,-592
	addi	a5,a5,-48
	add	a5,a5,s0
	mv	a1,a4
	mv	a0,a5
.LEHB45:
	call	_ZNSt6vectorIlSaIlEE9push_backEOl
	ld	a5,-440(s0)
	addi	s1,a5,-1
	ld	a1,-440(s0)
	ld	a0,-424(s0)
	call	_ZN10Polynomial8pInverseEll
	mv	a5,a0
	mul	a4,s1,a5
	ld	a5,-440(s0)
	rem	a5,a4,a5
	sd	a5,-488(s0)
	ld	a2,-440(s0)
	ld	a1,-488(s0)
	ld	a0,-448(s0)
	call	_ZN10Polynomial5powerElll
	mv	a5,a0
	sd	a5,-496(s0)
	li	a5,1
	sd	a5,-96(s0)
	j	.L213
.L214:
	ld	a2,-440(s0)
	ld	a1,-96(s0)
	ld	a0,-496(s0)
	call	_ZN10Polynomial5powerElll
	mv	a4,a0
	li	a5,-8192
	addi	a5,a5,-48
	add	a5,a5,s0
	sd	a4,1080(a5)
	li	a5,-8192
	addi	a5,a5,1080
	addi	a5,a5,-48
	add	a4,a5,s0
	li	a5,-8192
	addi	a5,a5,-592
	addi	a5,a5,-48
	add	a5,a5,s0
	mv	a1,a4
	mv	a0,a5
	call	_ZNSt6vectorIlSaIlEE9push_backEOl
	ld	a5,-96(s0)
	addi	a5,a5,1
	sd	a5,-96(s0)
.L213:
	ld	a4,-96(s0)
	ld	a5,-424(s0)
	blt	a4,a5,.L214
	lui	a5,%hi(.LC50)
	addi	a1,a5,%lo(.LC50)
	lui	a5,%hi(_ZSt4cout)
	addi	a0,a5,%lo(_ZSt4cout)
	call	_ZStlsISt11char_traitsIcEERSt13basic_ostreamIcT_ES5_PKc
	sd	zero,-104(s0)
	j	.L215
.L216:
	ld	a4,-104(s0)
	li	a5,-8192
	addi	a5,a5,-592
	addi	a5,a5,-48
	add	a5,a5,s0
	mv	a1,a4
	mv	a0,a5
	call	_ZNSt6vectorIlSaIlEEixEm
	mv	a5,a0
	ld	a5,0(a5)
	mv	a1,a5
	lui	a5,%hi(_ZSt4cout)
	addi	a0,a5,%lo(_ZSt4cout)
	call	_ZNSolsEl
	mv	a4,a0
	lui	a5,%hi(.LC49)
	addi	a1,a5,%lo(.LC49)
	mv	a0,a4
	call	_ZStlsISt11char_traitsIcEERSt13basic_ostreamIcT_ES5_PKc
	ld	a5,-104(s0)
	addi	a5,a5,1
	sd	a5,-104(s0)
.L215:
	ld	a4,-104(s0)
	ld	a5,-424(s0)
	blt	a4,a5,.L216
	lui	a5,%hi(_ZSt4endlIcSt11char_traitsIcEERSt13basic_ostreamIT_T0_ES6_)
	addi	a1,a5,%lo(_ZSt4endlIcSt11char_traitsIcEERSt13basic_ostreamIT_T0_ES6_)
	lui	a5,%hi(_ZSt4cout)
	addi	a0,a5,%lo(_ZSt4cout)
	call	_ZNSolsEPFRSoS_E
.LEHE45:
	ld	s1,-432(s0)
	li	a5,-8192
	addi	a5,a5,-48
	add	a5,a5,s0
	sd	zero,1112(a5)
	li	a5,-8192
	addi	a5,a5,1120
	addi	a5,a5,-48
	add	a5,a5,s0
	sd	a5,-1064(s0)
	nop
	nop
	li	a5,-8192
	addi	a5,a5,1120
	addi	a5,a5,-48
	add	a3,a5,s0
	li	a5,-8192
	addi	a5,a5,1112
	addi	a5,a5,-48
	add	a4,a5,s0
	li	a5,-8192
	addi	a5,a5,1088
	addi	a5,a5,-48
	add	a5,a5,s0
	mv	a2,a4
	li	a1,1
	mv	a0,a5
.LEHB46:
	call	_ZNSt6vectorIlSaIlEEC1EmRKlRKS0_
.LEHE46:
	li	a5,-8192
	addi	a5,a5,1128
	addi	a5,a5,-48
	add	a5,a5,s0
	sd	a5,-1072(s0)
	nop
	nop
	li	a5,-8192
	addi	a5,a5,1128
	addi	a5,a5,-48
	add	a3,a5,s0
	li	a5,-8192
	addi	a5,a5,1088
	addi	a5,a5,-48
	add	a4,a5,s0
	li	a5,-8192
	addi	a5,a5,-616
	addi	a5,a5,-48
	add	a5,a5,s0
	mv	a2,a4
	mv	a1,s1
	mv	a0,a5
.LEHB47:
	call	_ZNSt6vectorIS_IlSaIlEESaIS1_EEC1EmRKS1_RKS2_
.LEHE47:
	li	a5,-8192
	addi	a5,a5,1128
	addi	a5,a5,-48
	add	a5,a5,s0
	mv	a0,a5
	call	_ZNSt15__new_allocatorISt6vectorIlSaIlEEED2Ev
	nop
	li	a5,-8192
	addi	a5,a5,1088
	addi	a5,a5,-48
	add	a5,a5,s0
	mv	a0,a5
	call	_ZNSt6vectorIlSaIlEED1Ev
	li	a5,-8192
	addi	a5,a5,1120
	addi	a5,a5,-48
	add	a5,a5,s0
	mv	a0,a5
	call	_ZNSt15__new_allocatorIlED2Ev
	nop
	ld	s1,-432(s0)
	li	a5,-8192
	addi	a5,a5,-48
	add	a5,a5,s0
	sd	zero,1160(a5)
	li	a5,-8192
	addi	a5,a5,1168
	addi	a5,a5,-48
	add	a5,a5,s0
	sd	a5,-1080(s0)
	nop
	nop
	li	a5,-8192
	addi	a5,a5,1168
	addi	a5,a5,-48
	add	a3,a5,s0
	li	a5,-8192
	addi	a5,a5,1160
	addi	a5,a5,-48
	add	a4,a5,s0
	li	a5,-8192
	addi	a5,a5,1136
	addi	a5,a5,-48
	add	a5,a5,s0
	mv	a2,a4
	li	a1,1
	mv	a0,a5
.LEHB48:
	call	_ZNSt6vectorIlSaIlEEC1EmRKlRKS0_
.LEHE48:
	li	a5,-8192
	addi	a5,a5,1176
	addi	a5,a5,-48
	add	a5,a5,s0
	sd	a5,-1088(s0)
	nop
	nop
	li	a5,-8192
	addi	a5,a5,1176
	addi	a5,a5,-48
	add	a3,a5,s0
	li	a5,-8192
	addi	a5,a5,1136
	addi	a5,a5,-48
	add	a4,a5,s0
	li	a5,-8192
	addi	a5,a5,-640
	addi	a5,a5,-48
	add	a5,a5,s0
	mv	a2,a4
	mv	a1,s1
	mv	a0,a5
.LEHB49:
	call	_ZNSt6vectorIS_IlSaIlEESaIS1_EEC1EmRKS1_RKS2_
.LEHE49:
	li	a5,-8192
	addi	a5,a5,1176
	addi	a5,a5,-48
	add	a5,a5,s0
	mv	a0,a5
	call	_ZNSt15__new_allocatorISt6vectorIlSaIlEEED2Ev
	nop
	li	a5,-8192
	addi	a5,a5,1136
	addi	a5,a5,-48
	add	a5,a5,s0
	mv	a0,a5
	call	_ZNSt6vectorIlSaIlEED1Ev
	li	a5,-8192
	addi	a5,a5,1168
	addi	a5,a5,-48
	add	a5,a5,s0
	mv	a0,a5
	call	_ZNSt15__new_allocatorIlED2Ev
	nop
	ld	s1,-432(s0)
	li	a5,-8192
	addi	a5,a5,-48
	add	a5,a5,s0
	sd	zero,1208(a5)
	li	a5,-8192
	addi	a5,a5,1216
	addi	a5,a5,-48
	add	a5,a5,s0
	sd	a5,-1096(s0)
	nop
	nop
	li	a5,-8192
	addi	a5,a5,1216
	addi	a5,a5,-48
	add	a3,a5,s0
	li	a5,-8192
	addi	a5,a5,1208
	addi	a5,a5,-48
	add	a4,a5,s0
	li	a5,-8192
	addi	a5,a5,1184
	addi	a5,a5,-48
	add	a5,a5,s0
	mv	a2,a4
	li	a1,1
	mv	a0,a5
.LEHB50:
	call	_ZNSt6vectorIlSaIlEEC1EmRKlRKS0_
.LEHE50:
	li	a5,-8192
	addi	a5,a5,1224
	addi	a5,a5,-48
	add	a5,a5,s0
	sd	a5,-1104(s0)
	nop
	nop
	li	a5,-8192
	addi	a5,a5,1224
	addi	a5,a5,-48
	add	a3,a5,s0
	li	a5,-8192
	addi	a5,a5,1184
	addi	a5,a5,-48
	add	a4,a5,s0
	li	a5,-8192
	addi	a5,a5,-664
	addi	a5,a5,-48
	add	a5,a5,s0
	mv	a2,a4
	mv	a1,s1
	mv	a0,a5
.LEHB51:
	call	_ZNSt6vectorIS_IlSaIlEESaIS1_EEC1EmRKS1_RKS2_
.LEHE51:
	li	a5,-8192
	addi	a5,a5,1224
	addi	a5,a5,-48
	add	a5,a5,s0
	mv	a0,a5
	call	_ZNSt15__new_allocatorISt6vectorIlSaIlEEED2Ev
	nop
	li	a5,-8192
	addi	a5,a5,1184
	addi	a5,a5,-48
	add	a5,a5,s0
	mv	a0,a5
	call	_ZNSt6vectorIlSaIlEED1Ev
	li	a5,-8192
	addi	a5,a5,1216
	addi	a5,a5,-48
	add	a5,a5,s0
	mv	a0,a5
	call	_ZNSt15__new_allocatorIlED2Ev
	nop
	lui	a5,%hi(.LC51)
	addi	a1,a5,%lo(.LC51)
	lui	a5,%hi(_ZSt4cout)
	addi	a0,a5,%lo(_ZSt4cout)
.LEHB52:
	call	_ZStlsISt11char_traitsIcEERSt13basic_ostreamIcT_ES5_PKc
	mv	a5,a0
	ld	a1,-408(s0)
	mv	a0,a5
	call	_ZNSolsEl
	mv	a4,a0
	lui	a5,%hi(_ZSt4endlIcSt11char_traitsIcEERSt13basic_ostreamIT_T0_ES6_)
	addi	a1,a5,%lo(_ZSt4endlIcSt11char_traitsIcEERSt13basic_ostreamIT_T0_ES6_)
	mv	a0,a4
	call	_ZNSolsEPFRSoS_E
	sd	zero,-112(s0)
	j	.L217
.L222:
	sd	zero,-120(s0)
	j	.L218
.L221:
	sd	zero,-128(s0)
	j	.L219
.L220:
	ld	a4,-112(s0)
	li	a5,-8192
	addi	a5,a5,-616
	addi	a5,a5,-48
	add	a5,a5,s0
	mv	a1,a4
	mv	a0,a5
	call	_ZNSt6vectorIS_IlSaIlEESaIS1_EEixEm
	mv	a4,a0
	ld	a5,-120(s0)
	mv	a1,a5
	mv	a0,a4
	call	_ZNSt6vectorIlSaIlEEixEm
	mv	a5,a0
	ld	s1,0(a5)
	ld	a4,-112(s0)
	li	a5,-8192
	addi	a5,a5,-496
	addi	a5,a5,-48
	add	a5,a5,s0
	mv	a1,a4
	mv	a0,a5
	call	_ZNSt6vectorIS_IlSaIlEESaIS1_EEixEm
	mv	a4,a0
	ld	a5,-128(s0)
	mv	a1,a5
	mv	a0,a4
	call	_ZNSt6vectorIlSaIlEEixEm
	mv	a5,a0
	ld	s2,0(a5)
	ld	a4,-128(s0)
	li	a5,-8192
	addi	a5,a5,32
	addi	a5,a5,-48
	add	a5,a5,s0
	mv	a1,a4
	mv	a0,a5
	call	_ZNSt6vectorIlSaIlEEixEm
	mv	a5,a0
	ld	a5,0(a5)
	mul	a4,s2,a5
	ld	a5,-440(s0)
	rem	a5,a4,a5
	add	a4,s1,a5
	ld	a5,-440(s0)
	rem	s1,a4,a5
	ld	a4,-112(s0)
	li	a5,-8192
	addi	a5,a5,-616
	addi	a5,a5,-48
	add	a5,a5,s0
	mv	a1,a4
	mv	a0,a5
	call	_ZNSt6vectorIS_IlSaIlEESaIS1_EEixEm
	mv	a4,a0
	ld	a5,-120(s0)
	mv	a1,a5
	mv	a0,a4
	call	_ZNSt6vectorIlSaIlEEixEm
	mv	a5,a0
	sd	s1,0(a5)
	ld	a4,-112(s0)
	li	a5,-8192
	addi	a5,a5,-640
	addi	a5,a5,-48
	add	a5,a5,s0
	mv	a1,a4
	mv	a0,a5
	call	_ZNSt6vectorIS_IlSaIlEESaIS1_EEixEm
	mv	a4,a0
	ld	a5,-120(s0)
	mv	a1,a5
	mv	a0,a4
	call	_ZNSt6vectorIlSaIlEEixEm
	mv	a5,a0
	ld	s1,0(a5)
	ld	a4,-112(s0)
	li	a5,-8192
	addi	a5,a5,-520
	addi	a5,a5,-48
	add	a5,a5,s0
	mv	a1,a4
	mv	a0,a5
	call	_ZNSt6vectorIS_IlSaIlEESaIS1_EEixEm
	mv	a4,a0
	ld	a5,-128(s0)
	mv	a1,a5
	mv	a0,a4
	call	_ZNSt6vectorIlSaIlEEixEm
	mv	a5,a0
	ld	s2,0(a5)
	ld	a4,-128(s0)
	li	a5,-8192
	addi	a5,a5,32
	addi	a5,a5,-48
	add	a5,a5,s0
	mv	a1,a4
	mv	a0,a5
	call	_ZNSt6vectorIlSaIlEEixEm
	mv	a5,a0
	ld	a5,0(a5)
	mul	a4,s2,a5
	ld	a5,-440(s0)
	rem	a5,a4,a5
	add	a4,s1,a5
	ld	a5,-440(s0)
	rem	s1,a4,a5
	ld	a4,-112(s0)
	li	a5,-8192
	addi	a5,a5,-640
	addi	a5,a5,-48
	add	a5,a5,s0
	mv	a1,a4
	mv	a0,a5
	call	_ZNSt6vectorIS_IlSaIlEESaIS1_EEixEm
	mv	a4,a0
	ld	a5,-120(s0)
	mv	a1,a5
	mv	a0,a4
	call	_ZNSt6vectorIlSaIlEEixEm
	mv	a5,a0
	sd	s1,0(a5)
	ld	a4,-112(s0)
	li	a5,-8192
	addi	a5,a5,-664
	addi	a5,a5,-48
	add	a5,a5,s0
	mv	a1,a4
	mv	a0,a5
	call	_ZNSt6vectorIS_IlSaIlEESaIS1_EEixEm
	mv	a4,a0
	ld	a5,-120(s0)
	mv	a1,a5
	mv	a0,a4
	call	_ZNSt6vectorIlSaIlEEixEm
	mv	a5,a0
	ld	s1,0(a5)
	ld	a4,-112(s0)
	li	a5,-8192
	addi	a5,a5,-544
	addi	a5,a5,-48
	add	a5,a5,s0
	mv	a1,a4
	mv	a0,a5
	call	_ZNSt6vectorIS_IlSaIlEESaIS1_EEixEm
	mv	a4,a0
	ld	a5,-128(s0)
	mv	a1,a5
	mv	a0,a4
	call	_ZNSt6vectorIlSaIlEEixEm
	mv	a5,a0
	ld	s2,0(a5)
	ld	a4,-128(s0)
	li	a5,-8192
	addi	a5,a5,32
	addi	a5,a5,-48
	add	a5,a5,s0
	mv	a1,a4
	mv	a0,a5
	call	_ZNSt6vectorIlSaIlEEixEm
	mv	a5,a0
	ld	a5,0(a5)
	mul	a4,s2,a5
	ld	a5,-440(s0)
	rem	a5,a4,a5
	add	a4,s1,a5
	ld	a5,-440(s0)
	rem	s1,a4,a5
	ld	a4,-112(s0)
	li	a5,-8192
	addi	a5,a5,-664
	addi	a5,a5,-48
	add	a5,a5,s0
	mv	a1,a4
	mv	a0,a5
	call	_ZNSt6vectorIS_IlSaIlEESaIS1_EEixEm
	mv	a4,a0
	ld	a5,-120(s0)
	mv	a1,a5
	mv	a0,a4
	call	_ZNSt6vectorIlSaIlEEixEm
	mv	a5,a0
	sd	s1,0(a5)
	ld	a5,-128(s0)
	addi	a5,a5,1
	sd	a5,-128(s0)
.L219:
	ld	a4,-128(s0)
	ld	a5,-432(s0)
	blt	a4,a5,.L220
	ld	a5,-120(s0)
	addi	a5,a5,1
	sd	a5,-120(s0)
.L218:
	ld	a5,-120(s0)
	ble	a5,zero,.L221
	ld	a5,-112(s0)
	addi	a5,a5,1
	sd	a5,-112(s0)
.L217:
	ld	a4,-112(s0)
	ld	a5,-432(s0)
	blt	a4,a5,.L222
	lui	a5,%hi(.LC52)
	addi	a1,a5,%lo(.LC52)
	lui	a5,%hi(_ZSt4cout)
	addi	a0,a5,%lo(_ZSt4cout)
	call	_ZStlsISt11char_traitsIcEERSt13basic_ostreamIcT_ES5_PKc
	mv	a5,a0
	ld	a1,-440(s0)
	mv	a0,a5
	call	_ZNSolsEl
	mv	a4,a0
	lui	a5,%hi(.LC53)
	addi	a1,a5,%lo(.LC53)
	mv	a0,a4
	call	_ZStlsISt11char_traitsIcEERSt13basic_ostreamIcT_ES5_PKc
	sd	zero,-136(s0)
	j	.L223
.L224:
	ld	a4,-136(s0)
	li	a5,-8192
	addi	a5,a5,-616
	addi	a5,a5,-48
	add	a5,a5,s0
	mv	a1,a4
	mv	a0,a5
	call	_ZNSt6vectorIS_IlSaIlEESaIS1_EEixEm
	mv	a5,a0
	li	a1,0
	mv	a0,a5
	call	_ZNSt6vectorIlSaIlEEixEm
	mv	a5,a0
	ld	a5,0(a5)
	mv	a1,a5
	lui	a5,%hi(_ZSt4cout)
	addi	a0,a5,%lo(_ZSt4cout)
	call	_ZNSolsEl
	mv	a4,a0
	lui	a5,%hi(.LC49)
	addi	a1,a5,%lo(.LC49)
	mv	a0,a4
	call	_ZStlsISt11char_traitsIcEERSt13basic_ostreamIcT_ES5_PKc
	ld	a5,-136(s0)
	addi	a5,a5,1
	sd	a5,-136(s0)
.L223:
	ld	a4,-136(s0)
	ld	a5,-432(s0)
	blt	a4,a5,.L224
	lui	a5,%hi(_ZSt4endlIcSt11char_traitsIcEERSt13basic_ostreamIT_T0_ES6_)
	addi	a1,a5,%lo(_ZSt4endlIcSt11char_traitsIcEERSt13basic_ostreamIT_T0_ES6_)
	lui	a5,%hi(_ZSt4cout)
	addi	a0,a5,%lo(_ZSt4cout)
	call	_ZNSolsEPFRSoS_E
	lui	a5,%hi(.LC54)
	addi	a1,a5,%lo(.LC54)
	lui	a5,%hi(_ZSt4cout)
	addi	a0,a5,%lo(_ZSt4cout)
	call	_ZStlsISt11char_traitsIcEERSt13basic_ostreamIcT_ES5_PKc
	mv	a5,a0
	ld	a1,-440(s0)
	mv	a0,a5
	call	_ZNSolsEl
	mv	a4,a0
	lui	a5,%hi(.LC53)
	addi	a1,a5,%lo(.LC53)
	mv	a0,a4
	call	_ZStlsISt11char_traitsIcEERSt13basic_ostreamIcT_ES5_PKc
	sd	zero,-144(s0)
	j	.L225
.L226:
	ld	a4,-144(s0)
	li	a5,-8192
	addi	a5,a5,-640
	addi	a5,a5,-48
	add	a5,a5,s0
	mv	a1,a4
	mv	a0,a5
	call	_ZNSt6vectorIS_IlSaIlEESaIS1_EEixEm
	mv	a5,a0
	li	a1,0
	mv	a0,a5
	call	_ZNSt6vectorIlSaIlEEixEm
	mv	a5,a0
	ld	a5,0(a5)
	mv	a1,a5
	lui	a5,%hi(_ZSt4cout)
	addi	a0,a5,%lo(_ZSt4cout)
	call	_ZNSolsEl
	mv	a4,a0
	lui	a5,%hi(.LC49)
	addi	a1,a5,%lo(.LC49)
	mv	a0,a4
	call	_ZStlsISt11char_traitsIcEERSt13basic_ostreamIcT_ES5_PKc
	ld	a5,-144(s0)
	addi	a5,a5,1
	sd	a5,-144(s0)
.L225:
	ld	a4,-144(s0)
	ld	a5,-432(s0)
	blt	a4,a5,.L226
	lui	a5,%hi(_ZSt4endlIcSt11char_traitsIcEERSt13basic_ostreamIT_T0_ES6_)
	addi	a1,a5,%lo(_ZSt4endlIcSt11char_traitsIcEERSt13basic_ostreamIT_T0_ES6_)
	lui	a5,%hi(_ZSt4cout)
	addi	a0,a5,%lo(_ZSt4cout)
	call	_ZNSolsEPFRSoS_E
	lui	a5,%hi(.LC55)
	addi	a1,a5,%lo(.LC55)
	lui	a5,%hi(_ZSt4cout)
	addi	a0,a5,%lo(_ZSt4cout)
	call	_ZStlsISt11char_traitsIcEERSt13basic_ostreamIcT_ES5_PKc
	mv	a5,a0
	ld	a1,-440(s0)
	mv	a0,a5
	call	_ZNSolsEl
	mv	a4,a0
	lui	a5,%hi(.LC53)
	addi	a1,a5,%lo(.LC53)
	mv	a0,a4
	call	_ZStlsISt11char_traitsIcEERSt13basic_ostreamIcT_ES5_PKc
	sd	zero,-152(s0)
	j	.L227
.L228:
	ld	a4,-152(s0)
	li	a5,-8192
	addi	a5,a5,-664
	addi	a5,a5,-48
	add	a5,a5,s0
	mv	a1,a4
	mv	a0,a5
	call	_ZNSt6vectorIS_IlSaIlEESaIS1_EEixEm
	mv	a5,a0
	li	a1,0
	mv	a0,a5
	call	_ZNSt6vectorIlSaIlEEixEm
	mv	a5,a0
	ld	a5,0(a5)
	mv	a1,a5
	lui	a5,%hi(_ZSt4cout)
	addi	a0,a5,%lo(_ZSt4cout)
	call	_ZNSolsEl
	mv	a4,a0
	lui	a5,%hi(.LC49)
	addi	a1,a5,%lo(.LC49)
	mv	a0,a4
	call	_ZStlsISt11char_traitsIcEERSt13basic_ostreamIcT_ES5_PKc
	ld	a5,-152(s0)
	addi	a5,a5,1
	sd	a5,-152(s0)
.L227:
	ld	a4,-152(s0)
	ld	a5,-432(s0)
	blt	a4,a5,.L228
	lui	a5,%hi(_ZSt4endlIcSt11char_traitsIcEERSt13basic_ostreamIT_T0_ES6_)
	addi	a1,a5,%lo(_ZSt4endlIcSt11char_traitsIcEERSt13basic_ostreamIT_T0_ES6_)
	lui	a5,%hi(_ZSt4cout)
	addi	a0,a5,%lo(_ZSt4cout)
	call	_ZNSolsEPFRSoS_E
.LEHE52:
	li	a5,-8192
	addi	a5,a5,1232
	addi	a5,a5,-48
	add	a5,a5,s0
	sd	a5,-1112(s0)
	nop
	nop
	li	a5,-8192
	addi	a5,a5,1232
	addi	a5,a5,-48
	add	a4,a5,s0
	li	a5,-8192
	addi	a5,a5,-688
	addi	a5,a5,-48
	add	a5,a5,s0
	mv	a2,a4
	li	a1,2
	mv	a0,a5
.LEHB53:
	call	_ZNSt6vectorIS_IlSaIlEESaIS1_EEC1EmRKS2_
.LEHE53:
	li	a5,-8192
	addi	a5,a5,1232
	addi	a5,a5,-48
	add	a5,a5,s0
	mv	a0,a5
	call	_ZNSt15__new_allocatorISt6vectorIlSaIlEEED2Ev
	nop
	lui	a5,%hi(.LC56)
	addi	a1,a5,%lo(.LC56)
	lui	a5,%hi(_ZSt4cout)
	addi	a0,a5,%lo(_ZSt4cout)
.LEHB54:
	call	_ZStlsISt11char_traitsIcEERSt13basic_ostreamIcT_ES5_PKc
	mv	a4,a0
	lui	a5,%hi(_ZSt4endlIcSt11char_traitsIcEERSt13basic_ostreamIT_T0_ES6_)
	addi	a1,a5,%lo(_ZSt4endlIcSt11char_traitsIcEERSt13basic_ostreamIT_T0_ES6_)
	mv	a0,a4
	call	_ZNSolsEPFRSoS_E
	sd	zero,-160(s0)
	j	.L229
.L232:
	ld	a4,-160(s0)
	ld	a5,-432(s0)
	bge	a4,a5,.L230
	li	a5,-8192
	addi	a5,a5,-688
	addi	a5,a5,-48
	add	a5,a5,s0
	li	a1,0
	mv	a0,a5
	call	_ZNSt6vectorIS_IlSaIlEESaIS1_EEixEm
	mv	s1,a0
	ld	a4,-160(s0)
	li	a5,-8192
	addi	a5,a5,-568
	addi	a5,a5,-48
	add	a5,a5,s0
	mv	a1,a4
	mv	a0,a5
	call	_ZNSt6vectorIlSaIlEEixEm
	mv	a5,a0
	mv	a1,a5
	mv	a0,s1
	call	_ZNSt6vectorIlSaIlEE9push_backERKl
	li	a5,-8192
	addi	a5,a5,-688
	addi	a5,a5,-48
	add	a5,a5,s0
	li	a1,1
	mv	a0,a5
	call	_ZNSt6vectorIS_IlSaIlEESaIS1_EEixEm
	mv	s1,a0
	ld	a4,-160(s0)
	li	a5,-8192
	addi	a5,a5,-616
	addi	a5,a5,-48
	add	a5,a5,s0
	mv	a1,a4
	mv	a0,a5
	call	_ZNSt6vectorIS_IlSaIlEESaIS1_EEixEm
	mv	a5,a0
	li	a1,0
	mv	a0,a5
	call	_ZNSt6vectorIlSaIlEEixEm
	mv	a5,a0
	mv	a1,a5
	mv	a0,s1
	call	_ZNSt6vectorIlSaIlEE9push_backERKl
	j	.L231
.L230:
	li	a5,-8192
	addi	a5,a5,-688
	addi	a5,a5,-48
	add	a5,a5,s0
	li	a1,0
	mv	a0,a5
	call	_ZNSt6vectorIS_IlSaIlEESaIS1_EEixEm
	mv	s1,a0
	ld	a4,-440(s0)
	ld	a5,-432(s0)
	sub	a4,a4,a5
	li	a5,-8192
	addi	a5,a5,-568
	addi	a5,a5,-48
	add	a5,a5,s0
	mv	a1,a4
	mv	a0,a5
	call	_ZN10Polynomial20generateRandomNumberERKSt6vectorIlSaIlEEl
	mv	a4,a0
	li	a5,-8192
	addi	a5,a5,-48
	add	a5,a5,s0
	sd	a4,1240(a5)
	li	a5,-8192
	addi	a5,a5,1240
	addi	a5,a5,-48
	add	a5,a5,s0
	mv	a1,a5
	mv	a0,s1
	call	_ZNSt6vectorIlSaIlEE9push_backEOl
	li	a5,-8192
	addi	a5,a5,-688
	addi	a5,a5,-48
	add	a5,a5,s0
	li	a1,1
	mv	a0,a5
	call	_ZNSt6vectorIS_IlSaIlEESaIS1_EEixEm
	mv	s1,a0
	ld	a4,-440(s0)
	ld	a5,-432(s0)
	sub	a4,a4,a5
	li	a5,-8192
	addi	a5,a5,-568
	addi	a5,a5,-48
	add	a5,a5,s0
	mv	a1,a4
	mv	a0,a5
	call	_ZN10Polynomial20generateRandomNumberERKSt6vectorIlSaIlEEl
	mv	a4,a0
	li	a5,-8192
	addi	a5,a5,-48
	add	a5,a5,s0
	sd	a4,1248(a5)
	li	a5,-8192
	addi	a5,a5,1248
	addi	a5,a5,-48
	add	a5,a5,s0
	mv	a1,a5
	mv	a0,s1
	call	_ZNSt6vectorIlSaIlEE9push_backEOl
.L231:
	lui	a5,%hi(.LC57)
	addi	a1,a5,%lo(.LC57)
	lui	a5,%hi(_ZSt4cout)
	addi	a0,a5,%lo(_ZSt4cout)
	call	_ZStlsISt11char_traitsIcEERSt13basic_ostreamIcT_ES5_PKc
	mv	s1,a0
	li	a5,-8192
	addi	a5,a5,-688
	addi	a5,a5,-48
	add	a5,a5,s0
	li	a1,0
	mv	a0,a5
	call	_ZNSt6vectorIS_IlSaIlEESaIS1_EEixEm
	mv	a4,a0
	ld	a5,-160(s0)
	mv	a1,a5
	mv	a0,a4
	call	_ZNSt6vectorIlSaIlEEixEm
	mv	a5,a0
	ld	a5,0(a5)
	mv	a1,a5
	mv	a0,s1
	call	_ZNSolsEl
	mv	a4,a0
	lui	a5,%hi(.LC58)
	addi	a1,a5,%lo(.LC58)
	mv	a0,a4
	call	_ZStlsISt11char_traitsIcEERSt13basic_ostreamIcT_ES5_PKc
	mv	s1,a0
	li	a5,-8192
	addi	a5,a5,-688
	addi	a5,a5,-48
	add	a5,a5,s0
	li	a1,1
	mv	a0,a5
	call	_ZNSt6vectorIS_IlSaIlEESaIS1_EEixEm
	mv	a4,a0
	ld	a5,-160(s0)
	mv	a1,a5
	mv	a0,a4
	call	_ZNSt6vectorIlSaIlEEixEm
	mv	a5,a0
	ld	a5,0(a5)
	mv	a1,a5
	mv	a0,s1
	call	_ZNSolsEl
	ld	a5,-160(s0)
	addi	a5,a5,1
	sd	a5,-160(s0)
.L229:
	lui	a5,%hi(b)
	ld	a4,%lo(b)(a5)
	ld	a5,-432(s0)
	add	a5,a4,a5
	ld	a4,-160(s0)
	blt	a4,a5,.L232
	li	a5,-8192
	addi	a5,a5,-688
	addi	a5,a5,-48
	add	a5,a5,s0
	li	a1,0
	mv	a0,a5
	call	_ZNSt6vectorIS_IlSaIlEESaIS1_EEixEm
	mv	a4,a0
	li	a5,-8192
	addi	a5,a5,1256
	addi	a5,a5,-48
	add	a5,a5,s0
	mv	a1,a4
	mv	a0,a5
	call	_ZNSt6vectorIlSaIlEEC1ERKS1_
.LEHE54:
	li	a5,-8192
	addi	a5,a5,-688
	addi	a5,a5,-48
	add	a5,a5,s0
	li	a1,1
	mv	a0,a5
	call	_ZNSt6vectorIS_IlSaIlEESaIS1_EEixEm
	mv	a4,a0
	li	a5,-8192
	addi	a5,a5,1280
	addi	a5,a5,-48
	add	a5,a5,s0
	mv	a1,a4
	mv	a0,a5
.LEHB55:
	call	_ZNSt6vectorIlSaIlEEC1ERKS1_
.LEHE55:
	li	a5,-8192
	addi	a5,a5,1336
	addi	a5,a5,-48
	add	a5,a5,s0
	sd	a5,-1120(s0)
	nop
	nop
	li	a5,-8192
	addi	a5,a5,1336
	addi	a5,a5,-48
	add	a3,a5,s0
	li	a5,-8192
	addi	a5,a5,1304
	addi	a5,a5,-48
	add	a4,a5,s0
	mv	a2,a3
	lui	a5,%hi(.LC59)
	addi	a1,a5,%lo(.LC59)
	mv	a0,a4
.LEHB56:
	call	_ZNSt7__cxx1112basic_stringIcSt11char_traitsIcESaIcEEC1IS3_EEPKcRKS3_
.LEHE56:
	li	a5,-8192
	addi	a5,a5,-48
	add	a5,a5,s0
	addi	a0,a5,-712
	li	a5,-8192
	addi	a5,a5,1304
	addi	a5,a5,-48
	add	a4,a5,s0
	li	a5,-8192
	addi	a5,a5,1280
	addi	a5,a5,-48
	add	a2,a5,s0
	li	a5,-8192
	addi	a5,a5,1256
	addi	a5,a5,-48
	add	a5,a5,s0
	ld	a3,-440(s0)
	mv	a1,a5
.LEHB57:
	call	_ZN10Polynomial23setupLagrangePolynomialESt6vectorIlSaIlEES2_lRKNSt7__cxx1112basic_stringIcSt11char_traitsIcESaIcEEE
.LEHE57:
	li	a5,-8192
	addi	a5,a5,1304
	addi	a5,a5,-48
	add	a5,a5,s0
	mv	a0,a5
	call	_ZNSt7__cxx1112basic_stringIcSt11char_traitsIcESaIcEED1Ev
	li	a5,-8192
	addi	a5,a5,1336
	addi	a5,a5,-48
	add	a5,a5,s0
	mv	a0,a5
	call	_ZNSt15__new_allocatorIcED2Ev
	nop
	li	a5,-8192
	addi	a5,a5,1280
	addi	a5,a5,-48
	add	a5,a5,s0
	mv	a0,a5
	call	_ZNSt6vectorIlSaIlEED1Ev
	li	a5,-8192
	addi	a5,a5,1256
	addi	a5,a5,-48
	add	a5,a5,s0
	mv	a0,a5
	call	_ZNSt6vectorIlSaIlEED1Ev
	li	a5,-8192
	addi	a5,a5,1344
	addi	a5,a5,-48
	add	a5,a5,s0
	sd	a5,-1128(s0)
	nop
	nop
	li	a5,-8192
	addi	a5,a5,1344
	addi	a5,a5,-48
	add	a4,a5,s0
	li	a5,-8192
	addi	a5,a5,-736
	addi	a5,a5,-48
	add	a5,a5,s0
	mv	a2,a4
	li	a1,2
	mv	a0,a5
.LEHB58:
	call	_ZNSt6vectorIS_IlSaIlEESaIS1_EEC1EmRKS2_
.LEHE58:
	li	a5,-8192
	addi	a5,a5,1344
	addi	a5,a5,-48
	add	a5,a5,s0
	mv	a0,a5
	call	_ZNSt15__new_allocatorISt6vectorIlSaIlEEED2Ev
	nop
	lui	a5,%hi(.LC60)
	addi	a1,a5,%lo(.LC60)
	lui	a5,%hi(_ZSt4cout)
	addi	a0,a5,%lo(_ZSt4cout)
.LEHB59:
	call	_ZStlsISt11char_traitsIcEERSt13basic_ostreamIcT_ES5_PKc
	mv	a4,a0
	lui	a5,%hi(_ZSt4endlIcSt11char_traitsIcEERSt13basic_ostreamIT_T0_ES6_)
	addi	a1,a5,%lo(_ZSt4endlIcSt11char_traitsIcEERSt13basic_ostreamIT_T0_ES6_)
	mv	a0,a4
	call	_ZNSolsEPFRSoS_E
	sd	zero,-168(s0)
	j	.L233
.L236:
	ld	a4,-168(s0)
	ld	a5,-432(s0)
	bge	a4,a5,.L234
	li	a5,-8192
	addi	a5,a5,-736
	addi	a5,a5,-48
	add	a5,a5,s0
	li	a1,0
	mv	a0,a5
	call	_ZNSt6vectorIS_IlSaIlEESaIS1_EEixEm
	mv	s1,a0
	ld	a4,-168(s0)
	li	a5,-8192
	addi	a5,a5,-568
	addi	a5,a5,-48
	add	a5,a5,s0
	mv	a1,a4
	mv	a0,a5
	call	_ZNSt6vectorIlSaIlEEixEm
	mv	a5,a0
	mv	a1,a5
	mv	a0,s1
	call	_ZNSt6vectorIlSaIlEE9push_backERKl
	li	a5,-8192
	addi	a5,a5,-736
	addi	a5,a5,-48
	add	a5,a5,s0
	li	a1,1
	mv	a0,a5
	call	_ZNSt6vectorIS_IlSaIlEESaIS1_EEixEm
	mv	s1,a0
	ld	a4,-168(s0)
	li	a5,-8192
	addi	a5,a5,-640
	addi	a5,a5,-48
	add	a5,a5,s0
	mv	a1,a4
	mv	a0,a5
	call	_ZNSt6vectorIS_IlSaIlEESaIS1_EEixEm
	mv	a5,a0
	li	a1,0
	mv	a0,a5
	call	_ZNSt6vectorIlSaIlEEixEm
	mv	a5,a0
	mv	a1,a5
	mv	a0,s1
	call	_ZNSt6vectorIlSaIlEE9push_backERKl
	j	.L235
.L234:
	li	a5,-8192
	addi	a5,a5,-736
	addi	a5,a5,-48
	add	a5,a5,s0
	li	a1,0
	mv	a0,a5
	call	_ZNSt6vectorIS_IlSaIlEESaIS1_EEixEm
	mv	s1,a0
	li	a5,-8192
	addi	a5,a5,-688
	addi	a5,a5,-48
	add	a5,a5,s0
	li	a1,0
	mv	a0,a5
	call	_ZNSt6vectorIS_IlSaIlEESaIS1_EEixEm
	mv	a4,a0
	ld	a5,-168(s0)
	mv	a1,a5
	mv	a0,a4
	call	_ZNSt6vectorIlSaIlEEixEm
	mv	a5,a0
	mv	a1,a5
	mv	a0,s1
	call	_ZNSt6vectorIlSaIlEE9push_backERKl
	li	a5,-8192
	addi	a5,a5,-736
	addi	a5,a5,-48
	add	a5,a5,s0
	li	a1,1
	mv	a0,a5
	call	_ZNSt6vectorIS_IlSaIlEESaIS1_EEixEm
	mv	s1,a0
	ld	a4,-440(s0)
	ld	a5,-432(s0)
	sub	a4,a4,a5
	li	a5,-8192
	addi	a5,a5,-568
	addi	a5,a5,-48
	add	a5,a5,s0
	mv	a1,a4
	mv	a0,a5
	call	_ZN10Polynomial20generateRandomNumberERKSt6vectorIlSaIlEEl
	mv	a4,a0
	li	a5,-8192
	addi	a5,a5,-48
	add	a5,a5,s0
	sd	a4,1352(a5)
	li	a5,-8192
	addi	a5,a5,1352
	addi	a5,a5,-48
	add	a5,a5,s0
	mv	a1,a5
	mv	a0,s1
	call	_ZNSt6vectorIlSaIlEE9push_backEOl
.L235:
	lui	a5,%hi(.LC61)
	addi	a1,a5,%lo(.LC61)
	lui	a5,%hi(_ZSt4cout)
	addi	a0,a5,%lo(_ZSt4cout)
	call	_ZStlsISt11char_traitsIcEERSt13basic_ostreamIcT_ES5_PKc
	mv	s1,a0
	li	a5,-8192
	addi	a5,a5,-736
	addi	a5,a5,-48
	add	a5,a5,s0
	li	a1,0
	mv	a0,a5
	call	_ZNSt6vectorIS_IlSaIlEESaIS1_EEixEm
	mv	a4,a0
	ld	a5,-168(s0)
	mv	a1,a5
	mv	a0,a4
	call	_ZNSt6vectorIlSaIlEEixEm
	mv	a5,a0
	ld	a5,0(a5)
	mv	a1,a5
	mv	a0,s1
	call	_ZNSolsEl
	mv	a4,a0
	lui	a5,%hi(.LC58)
	addi	a1,a5,%lo(.LC58)
	mv	a0,a4
	call	_ZStlsISt11char_traitsIcEERSt13basic_ostreamIcT_ES5_PKc
	mv	s1,a0
	li	a5,-8192
	addi	a5,a5,-736
	addi	a5,a5,-48
	add	a5,a5,s0
	li	a1,1
	mv	a0,a5
	call	_ZNSt6vectorIS_IlSaIlEESaIS1_EEixEm
	mv	a4,a0
	ld	a5,-168(s0)
	mv	a1,a5
	mv	a0,a4
	call	_ZNSt6vectorIlSaIlEEixEm
	mv	a5,a0
	ld	a5,0(a5)
	mv	a1,a5
	mv	a0,s1
	call	_ZNSolsEl
	mv	a4,a0
	lui	a5,%hi(_ZSt4endlIcSt11char_traitsIcEERSt13basic_ostreamIT_T0_ES6_)
	addi	a1,a5,%lo(_ZSt4endlIcSt11char_traitsIcEERSt13basic_ostreamIT_T0_ES6_)
	mv	a0,a4
	call	_ZNSolsEPFRSoS_E
	ld	a5,-168(s0)
	addi	a5,a5,1
	sd	a5,-168(s0)
.L233:
	lui	a5,%hi(b)
	ld	a4,%lo(b)(a5)
	ld	a5,-432(s0)
	add	a5,a4,a5
	ld	a4,-168(s0)
	blt	a4,a5,.L236
	li	a5,-8192
	addi	a5,a5,-736
	addi	a5,a5,-48
	add	a5,a5,s0
	li	a1,0
	mv	a0,a5
	call	_ZNSt6vectorIS_IlSaIlEESaIS1_EEixEm
	mv	a4,a0
	li	a5,-8192
	addi	a5,a5,1360
	addi	a5,a5,-48
	add	a5,a5,s0
	mv	a1,a4
	mv	a0,a5
	call	_ZNSt6vectorIlSaIlEEC1ERKS1_
.LEHE59:
	li	a5,-8192
	addi	a5,a5,-736
	addi	a5,a5,-48
	add	a5,a5,s0
	li	a1,1
	mv	a0,a5
	call	_ZNSt6vectorIS_IlSaIlEESaIS1_EEixEm
	mv	a4,a0
	li	a5,-8192
	addi	a5,a5,1384
	addi	a5,a5,-48
	add	a5,a5,s0
	mv	a1,a4
	mv	a0,a5
.LEHB60:
	call	_ZNSt6vectorIlSaIlEEC1ERKS1_
.LEHE60:
	li	a5,-8192
	addi	a5,a5,1440
	addi	a5,a5,-48
	add	a5,a5,s0
	sd	a5,-1136(s0)
	nop
	nop
	li	a5,-8192
	addi	a5,a5,1440
	addi	a5,a5,-48
	add	a3,a5,s0
	li	a5,-8192
	addi	a5,a5,1408
	addi	a5,a5,-48
	add	a4,a5,s0
	mv	a2,a3
	lui	a5,%hi(.LC62)
	addi	a1,a5,%lo(.LC62)
	mv	a0,a4
.LEHB61:
	call	_ZNSt7__cxx1112basic_stringIcSt11char_traitsIcESaIcEEC1IS3_EEPKcRKS3_
.LEHE61:
	li	a5,-8192
	addi	a5,a5,-48
	add	a5,a5,s0
	addi	a0,a5,-760
	li	a5,-8192
	addi	a5,a5,1408
	addi	a5,a5,-48
	add	a4,a5,s0
	li	a5,-8192
	addi	a5,a5,1384
	addi	a5,a5,-48
	add	a2,a5,s0
	li	a5,-8192
	addi	a5,a5,1360
	addi	a5,a5,-48
	add	a5,a5,s0
	ld	a3,-440(s0)
	mv	a1,a5
.LEHB62:
	call	_ZN10Polynomial23setupLagrangePolynomialESt6vectorIlSaIlEES2_lRKNSt7__cxx1112basic_stringIcSt11char_traitsIcESaIcEEE
.LEHE62:
	li	a5,-8192
	addi	a5,a5,1408
	addi	a5,a5,-48
	add	a5,a5,s0
	mv	a0,a5
	call	_ZNSt7__cxx1112basic_stringIcSt11char_traitsIcESaIcEED1Ev
	li	a5,-8192
	addi	a5,a5,1440
	addi	a5,a5,-48
	add	a5,a5,s0
	mv	a0,a5
	call	_ZNSt15__new_allocatorIcED2Ev
	nop
	li	a5,-8192
	addi	a5,a5,1384
	addi	a5,a5,-48
	add	a5,a5,s0
	mv	a0,a5
	call	_ZNSt6vectorIlSaIlEED1Ev
	li	a5,-8192
	addi	a5,a5,1360
	addi	a5,a5,-48
	add	a5,a5,s0
	mv	a0,a5
	call	_ZNSt6vectorIlSaIlEED1Ev
	li	a5,-8192
	addi	a5,a5,1448
	addi	a5,a5,-48
	add	a5,a5,s0
	sd	a5,-1144(s0)
	nop
	nop
	li	a5,-8192
	addi	a5,a5,1448
	addi	a5,a5,-48
	add	a4,a5,s0
	li	a5,-8192
	addi	a5,a5,-784
	addi	a5,a5,-48
	add	a5,a5,s0
	mv	a2,a4
	li	a1,2
	mv	a0,a5
.LEHB63:
	call	_ZNSt6vectorIS_IlSaIlEESaIS1_EEC1EmRKS2_
.LEHE63:
	li	a5,-8192
	addi	a5,a5,1448
	addi	a5,a5,-48
	add	a5,a5,s0
	mv	a0,a5
	call	_ZNSt15__new_allocatorISt6vectorIlSaIlEEED2Ev
	nop
	lui	a5,%hi(.LC63)
	addi	a1,a5,%lo(.LC63)
	lui	a5,%hi(_ZSt4cout)
	addi	a0,a5,%lo(_ZSt4cout)
.LEHB64:
	call	_ZStlsISt11char_traitsIcEERSt13basic_ostreamIcT_ES5_PKc
	sd	zero,-176(s0)
	j	.L237
.L240:
	ld	a4,-176(s0)
	ld	a5,-432(s0)
	bge	a4,a5,.L238
	li	a5,-8192
	addi	a5,a5,-784
	addi	a5,a5,-48
	add	a5,a5,s0
	li	a1,0
	mv	a0,a5
	call	_ZNSt6vectorIS_IlSaIlEESaIS1_EEixEm
	mv	s1,a0
	ld	a4,-176(s0)
	li	a5,-8192
	addi	a5,a5,-568
	addi	a5,a5,-48
	add	a5,a5,s0
	mv	a1,a4
	mv	a0,a5
	call	_ZNSt6vectorIlSaIlEEixEm
	mv	a5,a0
	mv	a1,a5
	mv	a0,s1
	call	_ZNSt6vectorIlSaIlEE9push_backERKl
	li	a5,-8192
	addi	a5,a5,-784
	addi	a5,a5,-48
	add	a5,a5,s0
	li	a1,1
	mv	a0,a5
	call	_ZNSt6vectorIS_IlSaIlEESaIS1_EEixEm
	mv	s1,a0
	ld	a4,-176(s0)
	li	a5,-8192
	addi	a5,a5,-664
	addi	a5,a5,-48
	add	a5,a5,s0
	mv	a1,a4
	mv	a0,a5
	call	_ZNSt6vectorIS_IlSaIlEESaIS1_EEixEm
	mv	a5,a0
	li	a1,0
	mv	a0,a5
	call	_ZNSt6vectorIlSaIlEEixEm
	mv	a5,a0
	mv	a1,a5
	mv	a0,s1
	call	_ZNSt6vectorIlSaIlEE9push_backERKl
	j	.L239
.L238:
	li	a5,-8192
	addi	a5,a5,-784
	addi	a5,a5,-48
	add	a5,a5,s0
	li	a1,0
	mv	a0,a5
	call	_ZNSt6vectorIS_IlSaIlEESaIS1_EEixEm
	mv	s1,a0
	li	a5,-8192
	addi	a5,a5,-688
	addi	a5,a5,-48
	add	a5,a5,s0
	li	a1,0
	mv	a0,a5
	call	_ZNSt6vectorIS_IlSaIlEESaIS1_EEixEm
	mv	a4,a0
	ld	a5,-176(s0)
	mv	a1,a5
	mv	a0,a4
	call	_ZNSt6vectorIlSaIlEEixEm
	mv	a5,a0
	mv	a1,a5
	mv	a0,s1
	call	_ZNSt6vectorIlSaIlEE9push_backERKl
	li	a5,-8192
	addi	a5,a5,-784
	addi	a5,a5,-48
	add	a5,a5,s0
	li	a1,1
	mv	a0,a5
	call	_ZNSt6vectorIS_IlSaIlEESaIS1_EEixEm
	mv	s1,a0
	ld	a4,-440(s0)
	ld	a5,-432(s0)
	sub	a4,a4,a5
	li	a5,-8192
	addi	a5,a5,-568
	addi	a5,a5,-48
	add	a5,a5,s0
	mv	a1,a4
	mv	a0,a5
	call	_ZN10Polynomial20generateRandomNumberERKSt6vectorIlSaIlEEl
	mv	a4,a0
	li	a5,-8192
	addi	a5,a5,-48
	add	a5,a5,s0
	sd	a4,1456(a5)
	li	a5,-8192
	addi	a5,a5,1456
	addi	a5,a5,-48
	add	a5,a5,s0
	mv	a1,a5
	mv	a0,s1
	call	_ZNSt6vectorIlSaIlEE9push_backEOl
.L239:
	lui	a5,%hi(.LC64)
	addi	a1,a5,%lo(.LC64)
	lui	a5,%hi(_ZSt4cout)
	addi	a0,a5,%lo(_ZSt4cout)
	call	_ZStlsISt11char_traitsIcEERSt13basic_ostreamIcT_ES5_PKc
	mv	s1,a0
	li	a5,-8192
	addi	a5,a5,-784
	addi	a5,a5,-48
	add	a5,a5,s0
	li	a1,0
	mv	a0,a5
	call	_ZNSt6vectorIS_IlSaIlEESaIS1_EEixEm
	mv	a4,a0
	ld	a5,-176(s0)
	mv	a1,a5
	mv	a0,a4
	call	_ZNSt6vectorIlSaIlEEixEm
	mv	a5,a0
	ld	a5,0(a5)
	mv	a1,a5
	mv	a0,s1
	call	_ZNSolsEl
	mv	a4,a0
	lui	a5,%hi(.LC58)
	addi	a1,a5,%lo(.LC58)
	mv	a0,a4
	call	_ZStlsISt11char_traitsIcEERSt13basic_ostreamIcT_ES5_PKc
	mv	s1,a0
	li	a5,-8192
	addi	a5,a5,-784
	addi	a5,a5,-48
	add	a5,a5,s0
	li	a1,1
	mv	a0,a5
	call	_ZNSt6vectorIS_IlSaIlEESaIS1_EEixEm
	mv	a4,a0
	ld	a5,-176(s0)
	mv	a1,a5
	mv	a0,a4
	call	_ZNSt6vectorIlSaIlEEixEm
	mv	a5,a0
	ld	a5,0(a5)
	mv	a1,a5
	mv	a0,s1
	call	_ZNSolsEl
	mv	a4,a0
	lui	a5,%hi(_ZSt4endlIcSt11char_traitsIcEERSt13basic_ostreamIT_T0_ES6_)
	addi	a1,a5,%lo(_ZSt4endlIcSt11char_traitsIcEERSt13basic_ostreamIT_T0_ES6_)
	mv	a0,a4
	call	_ZNSolsEPFRSoS_E
	ld	a5,-176(s0)
	addi	a5,a5,1
	sd	a5,-176(s0)
.L237:
	lui	a5,%hi(b)
	ld	a4,%lo(b)(a5)
	ld	a5,-432(s0)
	add	a5,a4,a5
	ld	a4,-176(s0)
	blt	a4,a5,.L240
	li	a5,-8192
	addi	a5,a5,-784
	addi	a5,a5,-48
	add	a5,a5,s0
	li	a1,0
	mv	a0,a5
	call	_ZNSt6vectorIS_IlSaIlEESaIS1_EEixEm
	mv	a4,a0
	li	a5,-8192
	addi	a5,a5,1464
	addi	a5,a5,-48
	add	a5,a5,s0
	mv	a1,a4
	mv	a0,a5
	call	_ZNSt6vectorIlSaIlEEC1ERKS1_
.LEHE64:
	li	a5,-8192
	addi	a5,a5,-784
	addi	a5,a5,-48
	add	a5,a5,s0
	li	a1,1
	mv	a0,a5
	call	_ZNSt6vectorIS_IlSaIlEESaIS1_EEixEm
	mv	a4,a0
	li	a5,-8192
	addi	a5,a5,1488
	addi	a5,a5,-48
	add	a5,a5,s0
	mv	a1,a4
	mv	a0,a5
.LEHB65:
	call	_ZNSt6vectorIlSaIlEEC1ERKS1_
.LEHE65:
	li	a5,-8192
	addi	a5,a5,1544
	addi	a5,a5,-48
	add	a5,a5,s0
	sd	a5,-1152(s0)
	nop
	nop
	li	a5,-8192
	addi	a5,a5,1544
	addi	a5,a5,-48
	add	a3,a5,s0
	li	a5,-8192
	addi	a5,a5,1512
	addi	a5,a5,-48
	add	a4,a5,s0
	mv	a2,a3
	lui	a5,%hi(.LC65)
	addi	a1,a5,%lo(.LC65)
	mv	a0,a4
.LEHB66:
	call	_ZNSt7__cxx1112basic_stringIcSt11char_traitsIcESaIcEEC1IS3_EEPKcRKS3_
.LEHE66:
	li	a5,-8192
	addi	a5,a5,-48
	add	a5,a5,s0
	addi	a0,a5,-808
	li	a5,-8192
	addi	a5,a5,1512
	addi	a5,a5,-48
	add	a4,a5,s0
	li	a5,-8192
	addi	a5,a5,1488
	addi	a5,a5,-48
	add	a2,a5,s0
	li	a5,-8192
	addi	a5,a5,1464
	addi	a5,a5,-48
	add	a5,a5,s0
	ld	a3,-440(s0)
	mv	a1,a5
.LEHB67:
	call	_ZN10Polynomial23setupLagrangePolynomialESt6vectorIlSaIlEES2_lRKNSt7__cxx1112basic_stringIcSt11char_traitsIcESaIcEEE
.LEHE67:
	li	a5,-8192
	addi	a5,a5,1512
	addi	a5,a5,-48
	add	a5,a5,s0
	mv	a0,a5
	call	_ZNSt7__cxx1112basic_stringIcSt11char_traitsIcESaIcEED1Ev
	li	a5,-8192
	addi	a5,a5,1544
	addi	a5,a5,-48
	add	a5,a5,s0
	mv	a0,a5
	call	_ZNSt15__new_allocatorIcED2Ev
	nop
	li	a5,-8192
	addi	a5,a5,1488
	addi	a5,a5,-48
	add	a5,a5,s0
	mv	a0,a5
	call	_ZNSt6vectorIlSaIlEED1Ev
	li	a5,-8192
	addi	a5,a5,1464
	addi	a5,a5,-48
	add	a5,a5,s0
	mv	a0,a5
	call	_ZNSt6vectorIlSaIlEED1Ev
	li	a5,-8192
	addi	a5,a5,-832
	addi	a5,a5,-48
	add	a5,a5,s0
	mv	a0,a5
	call	_ZNSt6vectorIlSaIlEEC1Ev
	li	a5,-8192
	addi	a5,a5,-856
	addi	a5,a5,-48
	add	a5,a5,s0
	mv	a0,a5
	call	_ZNSt6vectorIlSaIlEEC1Ev
	li	a5,-8192
	addi	a5,a5,-880
	addi	a5,a5,-48
	add	a5,a5,s0
	mv	a0,a5
	call	_ZNSt6vectorIlSaIlEEC1Ev
	li	a5,-8192
	addi	a5,a5,-904
	addi	a5,a5,-48
	add	a5,a5,s0
	mv	a0,a5
	call	_ZNSt6vectorIlSaIlEEC1Ev
	sd	zero,-184(s0)
	j	.L241
.L242:
	ld	a4,-184(s0)
	li	a5,-8192
	addi	a5,a5,-568
	addi	a5,a5,-48
	add	a5,a5,s0
	mv	a1,a4
	mv	a0,a5
	call	_ZNSt6vectorIlSaIlEEixEm
	mv	a4,a0
	li	a5,-8192
	addi	a5,a5,-832
	addi	a5,a5,-48
	add	a5,a5,s0
	mv	a1,a4
	mv	a0,a5
.LEHB68:
	call	_ZNSt6vectorIlSaIlEE9push_backERKl
	ld	a4,-184(s0)
	li	a5,-8192
	addi	a5,a5,32
	addi	a5,a5,-48
	add	a5,a5,s0
	mv	a1,a4
	mv	a0,a5
	call	_ZNSt6vectorIlSaIlEEixEm
	mv	a4,a0
	li	a5,-8192
	addi	a5,a5,-880
	addi	a5,a5,-48
	add	a5,a5,s0
	mv	a1,a4
	mv	a0,a5
	call	_ZNSt6vectorIlSaIlEE9push_backERKl
	ld	a5,-184(s0)
	addi	a5,a5,1
	sd	a5,-184(s0)
.L241:
	ld	a4,-184(s0)
	ld	a5,-456(s0)
	blt	a4,a5,.L242
	li	a5,-8192
	addi	a5,a5,-832
	addi	a5,a5,-48
	add	a4,a5,s0
	li	a5,-8192
	addi	a5,a5,1552
	addi	a5,a5,-48
	add	a5,a5,s0
	mv	a1,a4
	mv	a0,a5
	call	_ZNSt6vectorIlSaIlEEC1ERKS1_
.LEHE68:
	li	a5,-8192
	addi	a5,a5,-880
	addi	a5,a5,-48
	add	a4,a5,s0
	li	a5,-8192
	addi	a5,a5,1576
	addi	a5,a5,-48
	add	a5,a5,s0
	mv	a1,a4
	mv	a0,a5
.LEHB69:
	call	_ZNSt6vectorIlSaIlEEC1ERKS1_
.LEHE69:
	li	a5,-8192
	addi	a5,a5,1632
	addi	a5,a5,-48
	add	a5,a5,s0
	sd	a5,-1160(s0)
	nop
	nop
	li	a5,-8192
	addi	a5,a5,1632
	addi	a5,a5,-48
	add	a3,a5,s0
	li	a5,-8192
	addi	a5,a5,1600
	addi	a5,a5,-48
	add	a4,a5,s0
	mv	a2,a3
	lui	a5,%hi(.LC66)
	addi	a1,a5,%lo(.LC66)
	mv	a0,a4
.LEHB70:
	call	_ZNSt7__cxx1112basic_stringIcSt11char_traitsIcESaIcEEC1IS3_EEPKcRKS3_
.LEHE70:
	li	a5,-8192
	addi	a5,a5,-48
	add	a5,a5,s0
	addi	a0,a5,-928
	li	a5,-8192
	addi	a5,a5,1600
	addi	a5,a5,-48
	add	a4,a5,s0
	li	a5,-8192
	addi	a5,a5,1576
	addi	a5,a5,-48
	add	a2,a5,s0
	li	a5,-8192
	addi	a5,a5,1552
	addi	a5,a5,-48
	add	a5,a5,s0
	ld	a3,-440(s0)
	mv	a1,a5
.LEHB71:
	call	_ZN10Polynomial23setupLagrangePolynomialESt6vectorIlSaIlEES2_lRKNSt7__cxx1112basic_stringIcSt11char_traitsIcESaIcEEE
.LEHE71:
	li	a5,-8192
	addi	a5,a5,1600
	addi	a5,a5,-48
	add	a5,a5,s0
	mv	a0,a5
	call	_ZNSt7__cxx1112basic_stringIcSt11char_traitsIcESaIcEED1Ev
	li	a5,-8192
	addi	a5,a5,1632
	addi	a5,a5,-48
	add	a5,a5,s0
	mv	a0,a5
	call	_ZNSt15__new_allocatorIcED2Ev
	nop
	li	a5,-8192
	addi	a5,a5,1576
	addi	a5,a5,-48
	add	a5,a5,s0
	mv	a0,a5
	call	_ZNSt6vectorIlSaIlEED1Ev
	li	a5,-8192
	addi	a5,a5,1552
	addi	a5,a5,-48
	add	a5,a5,s0
	mv	a0,a5
	call	_ZNSt6vectorIlSaIlEED1Ev
	sd	zero,-192(s0)
	j	.L243
.L244:
	ld	a4,-192(s0)
	ld	a5,-456(s0)
	add	a5,a4,a5
	mv	a4,a5
	li	a5,-8192
	addi	a5,a5,-568
	addi	a5,a5,-48
	add	a5,a5,s0
	mv	a1,a4
	mv	a0,a5
	call	_ZNSt6vectorIlSaIlEEixEm
	mv	a4,a0
	li	a5,-8192
	addi	a5,a5,-856
	addi	a5,a5,-48
	add	a5,a5,s0
	mv	a1,a4
	mv	a0,a5
.LEHB72:
	call	_ZNSt6vectorIlSaIlEE9push_backERKl
	ld	a4,-192(s0)
	ld	a5,-456(s0)
	add	a5,a4,a5
	mv	a4,a5
	li	a5,-8192
	addi	a5,a5,32
	addi	a5,a5,-48
	add	a5,a5,s0
	mv	a1,a4
	mv	a0,a5
	call	_ZNSt6vectorIlSaIlEEixEm
	mv	a4,a0
	li	a5,-8192
	addi	a5,a5,-904
	addi	a5,a5,-48
	add	a5,a5,s0
	mv	a1,a4
	mv	a0,a5
	call	_ZNSt6vectorIlSaIlEE9push_backERKl
	ld	a5,-192(s0)
	addi	a5,a5,1
	sd	a5,-192(s0)
.L243:
	ld	a4,-432(s0)
	ld	a5,-456(s0)
	sub	a5,a4,a5
	ld	a4,-192(s0)
	blt	a4,a5,.L244
	lui	a5,%hi(.LC67)
	addi	a1,a5,%lo(.LC67)
	lui	a5,%hi(_ZSt4cout)
	addi	a0,a5,%lo(_ZSt4cout)
	call	_ZStlsISt11char_traitsIcEERSt13basic_ostreamIcT_ES5_PKc
	mv	a4,a0
	lui	a5,%hi(_ZSt4endlIcSt11char_traitsIcEERSt13basic_ostreamIT_T0_ES6_)
	addi	a1,a5,%lo(_ZSt4endlIcSt11char_traitsIcEERSt13basic_ostreamIT_T0_ES6_)
	mv	a0,a4
	call	_ZNSolsEPFRSoS_E
.LEHE72:
	ld	a4,-432(s0)
	ld	a5,-456(s0)
	sub	a4,a4,a5
	lui	a5,%hi(b)
	ld	a5,%lo(b)(a5)
	add	a5,a4,a5
	mv	a3,a5
	li	a5,-8192
	addi	a5,a5,1640
	addi	a5,a5,-48
	add	a5,a5,s0
	sd	a5,-1168(s0)
	nop
	nop
	li	a5,-8192
	addi	a5,a5,1640
	addi	a5,a5,-48
	add	a4,a5,s0
	li	a5,-8192
	addi	a5,a5,-952
	addi	a5,a5,-48
	add	a5,a5,s0
	mv	a2,a4
	mv	a1,a3
	mv	a0,a5
.LEHB73:
	call	_ZNSt6vectorIlSaIlEEC1EmRKS0_
.LEHE73:
	li	a5,-8192
	addi	a5,a5,1640
	addi	a5,a5,-48
	add	a5,a5,s0
	mv	a0,a5
	call	_ZNSt15__new_allocatorIlED2Ev
	nop
	ld	a4,-432(s0)
	ld	a5,-456(s0)
	sub	a5,a4,a5
	mv	a1,a5
	li	a5,-8192
	addi	a5,a5,-48
	add	a5,a5,s0
	li	a4,1
	sd	a4,1648(a5)
	li	a5,-8192
	addi	a5,a5,1656
	addi	a5,a5,-48
	add	a5,a5,s0
	sd	a5,-1176(s0)
	nop
	nop
	li	a5,-8192
	addi	a5,a5,1656
	addi	a5,a5,-48
	add	a3,a5,s0
	li	a5,-8192
	addi	a5,a5,1648
	addi	a5,a5,-48
	add	a4,a5,s0
	li	a5,-8192
	addi	a5,a5,-976
	addi	a5,a5,-48
	add	a5,a5,s0
	mv	a2,a4
	mv	a0,a5
.LEHB74:
	call	_ZNSt6vectorIlSaIlEEC1EmRKlRKS0_
.LEHE74:
	li	a5,-8192
	addi	a5,a5,1656
	addi	a5,a5,-48
	add	a5,a5,s0
	mv	a0,a5
	call	_ZNSt15__new_allocatorIlED2Ev
	nop
	ld	a4,-432(s0)
	ld	a5,-456(s0)
	sub	a5,a4,a5
	mv	a1,a5
	li	a5,-8192
	addi	a5,a5,-48
	add	a5,a5,s0
	li	a4,1
	sd	a4,1664(a5)
	li	a5,-8192
	addi	a5,a5,1672
	addi	a5,a5,-48
	add	a5,a5,s0
	sd	a5,-1184(s0)
	nop
	nop
	li	a5,-8192
	addi	a5,a5,1672
	addi	a5,a5,-48
	add	a3,a5,s0
	li	a5,-8192
	addi	a5,a5,1664
	addi	a5,a5,-48
	add	a4,a5,s0
	li	a5,-8192
	addi	a5,a5,-1000
	addi	a5,a5,-48
	add	a5,a5,s0
	mv	a2,a4
	mv	a0,a5
.LEHB75:
	call	_ZNSt6vectorIlSaIlEEC1EmRKlRKS0_
.LEHE75:
	li	a5,-8192
	addi	a5,a5,1672
	addi	a5,a5,-48
	add	a5,a5,s0
	mv	a0,a5
	call	_ZNSt15__new_allocatorIlED2Ev
	nop
	sd	zero,-200(s0)
	j	.L245
.L250:
	ld	a4,-200(s0)
	li	a5,-8192
	addi	a5,a5,-904
	addi	a5,a5,-48
	add	a5,a5,s0
	mv	a1,a4
	mv	a0,a5
	call	_ZNSt6vectorIlSaIlEEixEm
	mv	a5,a0
	ld	s1,0(a5)
	ld	a4,-200(s0)
	li	a5,-8192
	addi	a5,a5,-856
	addi	a5,a5,-48
	add	a5,a5,s0
	mv	a1,a4
	mv	a0,a5
	call	_ZNSt6vectorIlSaIlEEixEm
	mv	a5,a0
	ld	a4,0(a5)
	li	a5,-8192
	addi	a5,a5,-928
	addi	a5,a5,-48
	add	a5,a5,s0
	ld	a2,-440(s0)
	mv	a1,a4
	mv	a0,a5
.LEHB76:
	call	_ZN10Polynomial18evaluatePolynomialERKSt6vectorIlSaIlEEll
	mv	a5,a0
	sub	s1,s1,a5
	ld	a4,-200(s0)
	li	a5,-8192
	addi	a5,a5,-976
	addi	a5,a5,-48
	add	a5,a5,s0
	mv	a1,a4
	mv	a0,a5
	call	_ZNSt6vectorIlSaIlEEixEm
	mv	a5,a0
	sd	s1,0(a5)
	sd	zero,-208(s0)
	j	.L246
.L248:
	ld	a4,-200(s0)
	li	a5,-8192
	addi	a5,a5,-856
	addi	a5,a5,-48
	add	a5,a5,s0
	mv	a1,a4
	mv	a0,a5
	call	_ZNSt6vectorIlSaIlEEixEm
	mv	a5,a0
	ld	s1,0(a5)
	ld	a4,-208(s0)
	li	a5,-8192
	addi	a5,a5,-832
	addi	a5,a5,-48
	add	a5,a5,s0
	mv	a1,a4
	mv	a0,a5
	call	_ZNSt6vectorIlSaIlEEixEm
	mv	a5,a0
	ld	a5,0(a5)
	sub	s1,s1,a5
	ld	a4,-200(s0)
	li	a5,-8192
	addi	a5,a5,-1000
	addi	a5,a5,-48
	add	a5,a5,s0
	mv	a1,a4
	mv	a0,a5
	call	_ZNSt6vectorIlSaIlEEixEm
	mv	a5,a0
	ld	a4,0(a5)
	mul	a4,s1,a4
	sd	a4,0(a5)
	ld	a4,-200(s0)
	li	a5,-8192
	addi	a5,a5,-1000
	addi	a5,a5,-48
	add	a5,a5,s0
	mv	a1,a4
	mv	a0,a5
	call	_ZNSt6vectorIlSaIlEEixEm
	mv	a5,a0
	ld	a3,0(a5)
	ld	a4,-440(s0)
	rem	a4,a3,a4
	sd	a4,0(a5)
	ld	a4,-200(s0)
	li	a5,-8192
	addi	a5,a5,-1000
	addi	a5,a5,-48
	add	a5,a5,s0
	mv	a1,a4
	mv	a0,a5
	call	_ZNSt6vectorIlSaIlEEixEm
	mv	a5,a0
	ld	a5,0(a5)
	srli	a5,a5,63
	andi	a5,a5,0xff
	beq	a5,zero,.L247
	ld	a4,-200(s0)
	li	a5,-8192
	addi	a5,a5,-1000
	addi	a5,a5,-48
	add	a5,a5,s0
	mv	a1,a4
	mv	a0,a5
	call	_ZNSt6vectorIlSaIlEEixEm
	mv	a5,a0
	ld	a3,0(a5)
	ld	a4,-440(s0)
	add	a4,a3,a4
	sd	a4,0(a5)
.L247:
	ld	a5,-208(s0)
	addi	a5,a5,1
	sd	a5,-208(s0)
.L246:
	li	a5,-8192
	addi	a5,a5,-832
	addi	a5,a5,-48
	add	a5,a5,s0
	mv	a0,a5
	call	_ZNKSt6vectorIlSaIlEE4sizeEv
	mv	a4,a0
	ld	a5,-208(s0)
	sgtu	a5,a4,a5
	andi	a5,a5,0xff
	bne	a5,zero,.L248
	ld	a4,-200(s0)
	li	a5,-8192
	addi	a5,a5,-1000
	addi	a5,a5,-48
	add	a5,a5,s0
	mv	a1,a4
	mv	a0,a5
	call	_ZNSt6vectorIlSaIlEEixEm
	mv	a5,a0
	ld	a5,0(a5)
	ld	a1,-440(s0)
	mv	a0,a5
	call	_ZN10Polynomial8pInverseEll
	mv	s1,a0
	ld	a4,-200(s0)
	li	a5,-8192
	addi	a5,a5,-1000
	addi	a5,a5,-48
	add	a5,a5,s0
	mv	a1,a4
	mv	a0,a5
	call	_ZNSt6vectorIlSaIlEEixEm
	mv	a5,a0
	sd	s1,0(a5)
	ld	a4,-200(s0)
	li	a5,-8192
	addi	a5,a5,-976
	addi	a5,a5,-48
	add	a5,a5,s0
	mv	a1,a4
	mv	a0,a5
	call	_ZNSt6vectorIlSaIlEEixEm
	mv	a5,a0
	ld	s1,0(a5)
	ld	a4,-200(s0)
	li	a5,-8192
	addi	a5,a5,-1000
	addi	a5,a5,-48
	add	a5,a5,s0
	mv	a1,a4
	mv	a0,a5
	call	_ZNSt6vectorIlSaIlEEixEm
	mv	a5,a0
	ld	a5,0(a5)
	mul	a4,s1,a5
	ld	a5,-440(s0)
	rem	s1,a4,a5
	ld	a4,-200(s0)
	li	a5,-8192
	addi	a5,a5,-952
	addi	a5,a5,-48
	add	a5,a5,s0
	mv	a1,a4
	mv	a0,a5
	call	_ZNSt6vectorIlSaIlEEixEm
	mv	a5,a0
	sd	s1,0(a5)
	ld	a4,-200(s0)
	li	a5,-8192
	addi	a5,a5,-952
	addi	a5,a5,-48
	add	a5,a5,s0
	mv	a1,a4
	mv	a0,a5
	call	_ZNSt6vectorIlSaIlEEixEm
	mv	a5,a0
	ld	a5,0(a5)
	srli	a5,a5,63
	andi	a5,a5,0xff
	beq	a5,zero,.L249
	ld	a4,-200(s0)
	li	a5,-8192
	addi	a5,a5,-952
	addi	a5,a5,-48
	add	a5,a5,s0
	mv	a1,a4
	mv	a0,a5
	call	_ZNSt6vectorIlSaIlEEixEm
	mv	a5,a0
	ld	a3,0(a5)
	ld	a4,-440(s0)
	add	a4,a3,a4
	sd	a4,0(a5)
.L249:
	lui	a5,%hi(.LC68)
	addi	a1,a5,%lo(.LC68)
	lui	a5,%hi(_ZSt4cout)
	addi	a0,a5,%lo(_ZSt4cout)
	call	_ZStlsISt11char_traitsIcEERSt13basic_ostreamIcT_ES5_PKc
	mv	s1,a0
	ld	a4,-200(s0)
	li	a5,-8192
	addi	a5,a5,-856
	addi	a5,a5,-48
	add	a5,a5,s0
	mv	a1,a4
	mv	a0,a5
	call	_ZNSt6vectorIlSaIlEEixEm
	mv	a5,a0
	ld	a5,0(a5)
	mv	a1,a5
	mv	a0,s1
	call	_ZNSolsEl
	mv	a4,a0
	lui	a5,%hi(.LC58)
	addi	a1,a5,%lo(.LC58)
	mv	a0,a4
	call	_ZStlsISt11char_traitsIcEERSt13basic_ostreamIcT_ES5_PKc
	mv	s1,a0
	ld	a4,-200(s0)
	li	a5,-8192
	addi	a5,a5,-952
	addi	a5,a5,-48
	add	a5,a5,s0
	mv	a1,a4
	mv	a0,a5
	call	_ZNSt6vectorIlSaIlEEixEm
	mv	a5,a0
	ld	a5,0(a5)
	mv	a1,a5
	mv	a0,s1
	call	_ZNSolsEl
	mv	a4,a0
	lui	a5,%hi(_ZSt4endlIcSt11char_traitsIcEERSt13basic_ostreamIT_T0_ES6_)
	addi	a1,a5,%lo(_ZSt4endlIcSt11char_traitsIcEERSt13basic_ostreamIT_T0_ES6_)
	mv	a0,a4
	call	_ZNSolsEPFRSoS_E
	ld	a5,-200(s0)
	addi	a5,a5,1
	sd	a5,-200(s0)
.L245:
	ld	a4,-432(s0)
	ld	a5,-456(s0)
	sub	a5,a4,a5
	ld	a4,-200(s0)
	blt	a4,a5,.L250
	lui	a5,%hi(.LC69)
	addi	a1,a5,%lo(.LC69)
	lui	a5,%hi(_ZSt4cout)
	addi	a0,a5,%lo(_ZSt4cout)
	call	_ZStlsISt11char_traitsIcEERSt13basic_ostreamIcT_ES5_PKc
	mv	a4,a0
	lui	a5,%hi(_ZSt4endlIcSt11char_traitsIcEERSt13basic_ostreamIT_T0_ES6_)
	addi	a1,a5,%lo(_ZSt4endlIcSt11char_traitsIcEERSt13basic_ostreamIT_T0_ES6_)
	mv	a0,a4
	call	_ZNSolsEPFRSoS_E
.LEHE76:
	li	a5,-8192
	addi	a5,a5,1680
	addi	a5,a5,-48
	add	a5,a5,s0
	sd	a5,-1192(s0)
	nop
	nop
	li	a5,-8192
	addi	a5,a5,1680
	addi	a5,a5,-48
	add	a4,a5,s0
	li	a5,-8192
	addi	a5,a5,-1024
	addi	a5,a5,-48
	add	a5,a5,s0
	mv	a2,a4
	li	a1,2
	mv	a0,a5
.LEHB77:
	call	_ZNSt6vectorIS_IlSaIlEESaIS1_EEC1EmRKS2_
.LEHE77:
	li	a5,-8192
	addi	a5,a5,1680
	addi	a5,a5,-48
	add	a5,a5,s0
	mv	a0,a5
	call	_ZNSt15__new_allocatorISt6vectorIlSaIlEEED2Ev
	nop
	sd	zero,-216(s0)
	j	.L251
.L252:
	li	a5,-8192
	addi	a5,a5,-1024
	addi	a5,a5,-48
	add	a5,a5,s0
	li	a1,0
	mv	a0,a5
	call	_ZNSt6vectorIS_IlSaIlEESaIS1_EEixEm
	mv	s1,a0
	ld	a4,-216(s0)
	li	a5,-8192
	addi	a5,a5,-856
	addi	a5,a5,-48
	add	a5,a5,s0
	mv	a1,a4
	mv	a0,a5
	call	_ZNSt6vectorIlSaIlEEixEm
	mv	a5,a0
	mv	a1,a5
	mv	a0,s1
.LEHB78:
	call	_ZNSt6vectorIlSaIlEE9push_backERKl
	li	a5,-8192
	addi	a5,a5,-1024
	addi	a5,a5,-48
	add	a5,a5,s0
	li	a1,1
	mv	a0,a5
	call	_ZNSt6vectorIS_IlSaIlEESaIS1_EEixEm
	mv	s1,a0
	ld	a4,-216(s0)
	li	a5,-8192
	addi	a5,a5,-952
	addi	a5,a5,-48
	add	a5,a5,s0
	mv	a1,a4
	mv	a0,a5
	call	_ZNSt6vectorIlSaIlEEixEm
	mv	a5,a0
	mv	a1,a5
	mv	a0,s1
	call	_ZNSt6vectorIlSaIlEE9push_backERKl
	lui	a5,%hi(.LC70)
	addi	a1,a5,%lo(.LC70)
	lui	a5,%hi(_ZSt4cout)
	addi	a0,a5,%lo(_ZSt4cout)
	call	_ZStlsISt11char_traitsIcEERSt13basic_ostreamIcT_ES5_PKc
	mv	s1,a0
	li	a5,-8192
	addi	a5,a5,-1024
	addi	a5,a5,-48
	add	a5,a5,s0
	li	a1,0
	mv	a0,a5
	call	_ZNSt6vectorIS_IlSaIlEESaIS1_EEixEm
	mv	a4,a0
	ld	a5,-216(s0)
	mv	a1,a5
	mv	a0,a4
	call	_ZNSt6vectorIlSaIlEEixEm
	mv	a5,a0
	ld	a5,0(a5)
	mv	a1,a5
	mv	a0,s1
	call	_ZNSolsEl
	mv	a4,a0
	lui	a5,%hi(.LC58)
	addi	a1,a5,%lo(.LC58)
	mv	a0,a4
	call	_ZStlsISt11char_traitsIcEERSt13basic_ostreamIcT_ES5_PKc
	mv	s1,a0
	li	a5,-8192
	addi	a5,a5,-1024
	addi	a5,a5,-48
	add	a5,a5,s0
	li	a1,1
	mv	a0,a5
	call	_ZNSt6vectorIS_IlSaIlEESaIS1_EEixEm
	mv	a4,a0
	ld	a5,-216(s0)
	mv	a1,a5
	mv	a0,a4
	call	_ZNSt6vectorIlSaIlEEixEm
	mv	a5,a0
	ld	a5,0(a5)
	mv	a1,a5
	mv	a0,s1
	call	_ZNSolsEl
	mv	a4,a0
	lui	a5,%hi(_ZSt4endlIcSt11char_traitsIcEERSt13basic_ostreamIT_T0_ES6_)
	addi	a1,a5,%lo(_ZSt4endlIcSt11char_traitsIcEERSt13basic_ostreamIT_T0_ES6_)
	mv	a0,a4
	call	_ZNSolsEPFRSoS_E
	ld	a5,-216(s0)
	addi	a5,a5,1
	sd	a5,-216(s0)
.L251:
	ld	a4,-432(s0)
	ld	a5,-456(s0)
	sub	a5,a4,a5
	ld	a4,-216(s0)
	blt	a4,a5,.L252
	ld	a5,-432(s0)
	sd	a5,-224(s0)
	j	.L253
.L254:
	li	a5,-8192
	addi	a5,a5,-1024
	addi	a5,a5,-48
	add	a5,a5,s0
	li	a1,0
	mv	a0,a5
	call	_ZNSt6vectorIS_IlSaIlEESaIS1_EEixEm
	mv	s1,a0
	li	a5,-8192
	addi	a5,a5,-688
	addi	a5,a5,-48
	add	a5,a5,s0
	li	a1,0
	mv	a0,a5
	call	_ZNSt6vectorIS_IlSaIlEESaIS1_EEixEm
	mv	a4,a0
	ld	a5,-224(s0)
	mv	a1,a5
	mv	a0,a4
	call	_ZNSt6vectorIlSaIlEEixEm
	mv	a5,a0
	mv	a1,a5
	mv	a0,s1
	call	_ZNSt6vectorIlSaIlEE9push_backERKl
	li	a5,-8192
	addi	a5,a5,-1024
	addi	a5,a5,-48
	add	a5,a5,s0
	li	a1,1
	mv	a0,a5
	call	_ZNSt6vectorIS_IlSaIlEESaIS1_EEixEm
	mv	s1,a0
	li	a5,-8192
	addi	a5,a5,-568
	addi	a5,a5,-48
	add	a5,a5,s0
	ld	a1,-440(s0)
	mv	a0,a5
	call	_ZN10Polynomial20generateRandomNumberERKSt6vectorIlSaIlEEl
	mv	a4,a0
	li	a5,-8192
	addi	a5,a5,-48
	add	a5,a5,s0
	sd	a4,1688(a5)
	li	a5,-8192
	addi	a5,a5,1688
	addi	a5,a5,-48
	add	a5,a5,s0
	mv	a1,a5
	mv	a0,s1
	call	_ZNSt6vectorIlSaIlEE9push_backEOl
	lui	a5,%hi(.LC70)
	addi	a1,a5,%lo(.LC70)
	lui	a5,%hi(_ZSt4cout)
	addi	a0,a5,%lo(_ZSt4cout)
	call	_ZStlsISt11char_traitsIcEERSt13basic_ostreamIcT_ES5_PKc
	mv	s1,a0
	li	a5,-8192
	addi	a5,a5,-1024
	addi	a5,a5,-48
	add	a5,a5,s0
	li	a1,0
	mv	a0,a5
	call	_ZNSt6vectorIS_IlSaIlEESaIS1_EEixEm
	mv	a3,a0
	lui	a5,%hi(b)
	ld	a5,%lo(b)(a5)
	ld	a4,-224(s0)
	sub	a5,a4,a5
	mv	a1,a5
	mv	a0,a3
	call	_ZNSt6vectorIlSaIlEEixEm
	mv	a5,a0
	ld	a5,0(a5)
	mv	a1,a5
	mv	a0,s1
	call	_ZNSolsEl
	mv	a4,a0
	lui	a5,%hi(.LC58)
	addi	a1,a5,%lo(.LC58)
	mv	a0,a4
	call	_ZStlsISt11char_traitsIcEERSt13basic_ostreamIcT_ES5_PKc
	mv	s1,a0
	li	a5,-8192
	addi	a5,a5,-1024
	addi	a5,a5,-48
	add	a5,a5,s0
	li	a1,1
	mv	a0,a5
	call	_ZNSt6vectorIS_IlSaIlEESaIS1_EEixEm
	mv	a3,a0
	lui	a5,%hi(b)
	ld	a5,%lo(b)(a5)
	ld	a4,-224(s0)
	sub	a5,a4,a5
	mv	a1,a5
	mv	a0,a3
	call	_ZNSt6vectorIlSaIlEEixEm
	mv	a5,a0
	ld	a5,0(a5)
	mv	a1,a5
	mv	a0,s1
	call	_ZNSolsEl
	mv	a4,a0
	lui	a5,%hi(_ZSt4endlIcSt11char_traitsIcEERSt13basic_ostreamIT_T0_ES6_)
	addi	a1,a5,%lo(_ZSt4endlIcSt11char_traitsIcEERSt13basic_ostreamIT_T0_ES6_)
	mv	a0,a4
	call	_ZNSolsEPFRSoS_E
	ld	a5,-224(s0)
	addi	a5,a5,1
	sd	a5,-224(s0)
.L253:
	lui	a5,%hi(b)
	ld	a4,%lo(b)(a5)
	ld	a5,-432(s0)
	add	a5,a4,a5
	ld	a4,-224(s0)
	blt	a4,a5,.L254
	li	a5,-8192
	addi	a5,a5,-1024
	addi	a5,a5,-48
	add	a5,a5,s0
	li	a1,0
	mv	a0,a5
	call	_ZNSt6vectorIS_IlSaIlEESaIS1_EEixEm
	mv	a4,a0
	li	a5,-8192
	addi	a5,a5,1696
	addi	a5,a5,-48
	add	a5,a5,s0
	mv	a1,a4
	mv	a0,a5
	call	_ZNSt6vectorIlSaIlEEC1ERKS1_
.LEHE78:
	li	a5,-8192
	addi	a5,a5,-1024
	addi	a5,a5,-48
	add	a5,a5,s0
	li	a1,1
	mv	a0,a5
	call	_ZNSt6vectorIS_IlSaIlEESaIS1_EEixEm
	mv	a4,a0
	li	a5,-8192
	addi	a5,a5,1720
	addi	a5,a5,-48
	add	a5,a5,s0
	mv	a1,a4
	mv	a0,a5
.LEHB79:
	call	_ZNSt6vectorIlSaIlEEC1ERKS1_
.LEHE79:
	li	a5,-8192
	addi	a5,a5,1776
	addi	a5,a5,-48
	add	a5,a5,s0
	sd	a5,-1200(s0)
	nop
	nop
	li	a5,-8192
	addi	a5,a5,1776
	addi	a5,a5,-48
	add	a3,a5,s0
	li	a5,-8192
	addi	a5,a5,1744
	addi	a5,a5,-48
	add	a4,a5,s0
	mv	a2,a3
	lui	a5,%hi(.LC71)
	addi	a1,a5,%lo(.LC71)
	mv	a0,a4
.LEHB80:
	call	_ZNSt7__cxx1112basic_stringIcSt11char_traitsIcESaIcEEC1IS3_EEPKcRKS3_
.LEHE80:
	li	a5,-8192
	addi	a5,a5,-48
	add	a5,a5,s0
	addi	a0,a5,-1048
	li	a5,-8192
	addi	a5,a5,1744
	addi	a5,a5,-48
	add	a4,a5,s0
	li	a5,-8192
	addi	a5,a5,1720
	addi	a5,a5,-48
	add	a2,a5,s0
	li	a5,-8192
	addi	a5,a5,1696
	addi	a5,a5,-48
	add	a5,a5,s0
	ld	a3,-440(s0)
	mv	a1,a5
.LEHB81:
	call	_ZN10Polynomial23setupLagrangePolynomialESt6vectorIlSaIlEES2_lRKNSt7__cxx1112basic_stringIcSt11char_traitsIcESaIcEEE
.LEHE81:
	li	a5,-8192
	addi	a5,a5,1744
	addi	a5,a5,-48
	add	a5,a5,s0
	mv	a0,a5
	call	_ZNSt7__cxx1112basic_stringIcSt11char_traitsIcESaIcEED1Ev
	li	a5,-8192
	addi	a5,a5,1776
	addi	a5,a5,-48
	add	a5,a5,s0
	mv	a0,a5
	call	_ZNSt15__new_allocatorIcED2Ev
	nop
	li	a5,-8192
	addi	a5,a5,1720
	addi	a5,a5,-48
	add	a5,a5,s0
	mv	a0,a5
	call	_ZNSt6vectorIlSaIlEED1Ev
	li	a5,-8192
	addi	a5,a5,1696
	addi	a5,a5,-48
	add	a5,a5,s0
	mv	a0,a5
	call	_ZNSt6vectorIlSaIlEED1Ev
	li	a5,-8192
	addi	a5,a5,-48
	add	a5,a5,s0
	addi	a4,a5,-1072
	li	a5,-8192
	addi	a5,a5,-760
	addi	a5,a5,-48
	add	a2,a5,s0
	li	a5,-8192
	addi	a5,a5,-712
	addi	a5,a5,-48
	add	a5,a5,s0
	ld	a3,-440(s0)
	mv	a1,a5
	mv	a0,a4
.LEHB82:
	call	_ZN10Polynomial19multiplyPolynomialsERKSt6vectorIlSaIlEES4_l
.LEHE82:
	li	a5,-8192
	addi	a5,a5,-48
	add	a5,a5,s0
	addi	a4,a5,-1096
	li	a5,-8192
	addi	a5,a5,-808
	addi	a5,a5,-48
	add	a2,a5,s0
	li	a5,-8192
	addi	a5,a5,-1072
	addi	a5,a5,-48
	add	a5,a5,s0
	ld	a3,-440(s0)
	mv	a1,a5
	mv	a0,a4
.LEHB83:
	call	_ZN10Polynomial19subtractPolynomialsERKSt6vectorIlSaIlEES4_l
.LEHE83:
	li	a5,-8192
	addi	a5,a5,1816
	addi	a5,a5,-48
	add	a5,a5,s0
	sd	a5,-1208(s0)
	nop
	nop
	li	a5,-8192
	addi	a5,a5,1816
	addi	a5,a5,-48
	add	a3,a5,s0
	li	a5,-8192
	addi	a5,a5,1784
	addi	a5,a5,-48
	add	a4,a5,s0
	mv	a2,a3
	lui	a5,%hi(.LC72)
	addi	a1,a5,%lo(.LC72)
	mv	a0,a4
.LEHB84:
	call	_ZNSt7__cxx1112basic_stringIcSt11char_traitsIcESaIcEEC1IS3_EEPKcRKS3_
.LEHE84:
	li	a5,-8192
	addi	a5,a5,1784
	addi	a5,a5,-48
	add	a4,a5,s0
	li	a5,-8192
	addi	a5,a5,-1096
	addi	a5,a5,-48
	add	a5,a5,s0
	mv	a1,a4
	mv	a0,a5
.LEHB85:
	call	_ZN10Polynomial15printPolynomialERKSt6vectorIlSaIlEERKNSt7__cxx1112basic_stringIcSt11char_traitsIcESaIcEEE
.LEHE85:
	li	a5,-8192
	addi	a5,a5,1784
	addi	a5,a5,-48
	add	a5,a5,s0
	mv	a0,a5
	call	_ZNSt7__cxx1112basic_stringIcSt11char_traitsIcESaIcEED1Ev
	li	a5,-8192
	addi	a5,a5,1816
	addi	a5,a5,-48
	add	a5,a5,s0
	mv	a0,a5
	call	_ZNSt15__new_allocatorIcED2Ev
	nop
	ld	a5,-432(s0)
	addi	a5,a5,1
	mv	a1,a5
	li	a5,-8192
	addi	a5,a5,-48
	add	a5,a5,s0
	sd	zero,1824(a5)
	li	a5,-8192
	addi	a5,a5,1832
	addi	a5,a5,-48
	add	a5,a5,s0
	sd	a5,-1216(s0)
	nop
	nop
	li	a5,-8192
	addi	a5,a5,1832
	addi	a5,a5,-48
	add	a3,a5,s0
	li	a5,-8192
	addi	a5,a5,1824
	addi	a5,a5,-48
	add	a4,a5,s0
	li	a5,-8192
	addi	a5,a5,-1120
	addi	a5,a5,-48
	add	a5,a5,s0
	mv	a2,a4
	mv	a0,a5
.LEHB86:
	call	_ZNSt6vectorIlSaIlEEC1EmRKlRKS0_
.LEHE86:
	li	a5,-8192
	addi	a5,a5,1832
	addi	a5,a5,-48
	add	a5,a5,s0
	mv	a0,a5
	call	_ZNSt15__new_allocatorIlED2Ev
	nop
	li	a4,-1
	ld	a5,-440(s0)
	rem	s1,a4,a5
	li	a5,-8192
	addi	a5,a5,-1120
	addi	a5,a5,-48
	add	a5,a5,s0
	li	a1,0
	mv	a0,a5
	call	_ZNSt6vectorIlSaIlEEixEm
	mv	a5,a0
	sd	s1,0(a5)
	li	a5,-8192
	addi	a5,a5,-1120
	addi	a5,a5,-48
	add	a5,a5,s0
	li	a1,0
	mv	a0,a5
	call	_ZNSt6vectorIlSaIlEEixEm
	mv	a5,a0
	ld	a5,0(a5)
	srli	a5,a5,63
	andi	a5,a5,0xff
	beq	a5,zero,.L255
	li	a5,-8192
	addi	a5,a5,-1120
	addi	a5,a5,-48
	add	a5,a5,s0
	li	a1,0
	mv	a0,a5
	call	_ZNSt6vectorIlSaIlEEixEm
	mv	a5,a0
	ld	a3,0(a5)
	ld	a4,-440(s0)
	add	a4,a3,a4
	sd	a4,0(a5)
.L255:
	ld	a4,-432(s0)
	li	a5,-8192
	addi	a5,a5,-1120
	addi	a5,a5,-48
	add	a5,a5,s0
	mv	a1,a4
	mv	a0,a5
	call	_ZNSt6vectorIlSaIlEEixEm
	mv	a4,a0
	li	a5,1
	sd	a5,0(a4)
	li	a5,-8192
	addi	a5,a5,1872
	addi	a5,a5,-48
	add	a5,a5,s0
	sd	a5,-1224(s0)
	nop
	nop
	li	a5,-8192
	addi	a5,a5,1872
	addi	a5,a5,-48
	add	a3,a5,s0
	li	a5,-8192
	addi	a5,a5,1840
	addi	a5,a5,-48
	add	a4,a5,s0
	mv	a2,a3
	lui	a5,%hi(.LC73)
	addi	a1,a5,%lo(.LC73)
	mv	a0,a4
.LEHB87:
	call	_ZNSt7__cxx1112basic_stringIcSt11char_traitsIcESaIcEEC1IS3_EEPKcRKS3_
.LEHE87:
	li	a5,-8192
	addi	a5,a5,1840
	addi	a5,a5,-48
	add	a4,a5,s0
	li	a5,-8192
	addi	a5,a5,-1120
	addi	a5,a5,-48
	add	a5,a5,s0
	mv	a1,a4
	mv	a0,a5
.LEHB88:
	call	_ZN10Polynomial15printPolynomialERKSt6vectorIlSaIlEERKNSt7__cxx1112basic_stringIcSt11char_traitsIcESaIcEEE
.LEHE88:
	li	a5,-8192
	addi	a5,a5,1840
	addi	a5,a5,-48
	add	a5,a5,s0
	mv	a0,a5
	call	_ZNSt7__cxx1112basic_stringIcSt11char_traitsIcESaIcEED1Ev
	li	a5,-8192
	addi	a5,a5,1872
	addi	a5,a5,-48
	add	a5,a5,s0
	mv	a0,a5
	call	_ZNSt15__new_allocatorIcED2Ev
	nop
	li	a5,-8192
	addi	a5,a5,-592
	addi	a5,a5,-48
	add	a5,a5,s0
	li	a1,0
	mv	a0,a5
	call	_ZNSt6vectorIlSaIlEEixEm
	mv	a5,a0
	ld	a4,0(a5)
	li	a5,-8192
	addi	a5,a5,-48
	add	a5,a5,s0
	addi	a5,a5,-1144
	mv	a1,a4
	mv	a0,a5
.LEHB89:
	call	_ZN10Polynomial22createLinearPolynomialEl
.LEHE89:
	li	a5,1
	sd	a5,-232(s0)
	j	.L256
.L257:
	li	a5,-8192
	addi	a5,a5,-592
	addi	a5,a5,-48
	add	a5,a5,s0
	ld	a1,-232(s0)
	mv	a0,a5
	call	_ZNSt6vectorIlSaIlEEixEm
	mv	a5,a0
	ld	a4,0(a5)
	li	a5,-12288
	addi	a5,a5,-48
	add	a5,a5,s0
	addi	a5,a5,1112
	mv	a1,a4
	mv	a0,a5
.LEHB90:
	call	_ZN10Polynomial22createLinearPolynomialEl
.LEHE90:
	li	a5,-8192
	addi	a5,a5,-48
	add	a5,a5,s0
	addi	a4,a5,1880
	li	a5,-12288
	addi	a5,a5,1112
	addi	a5,a5,-48
	add	a2,a5,s0
	li	a5,-8192
	addi	a5,a5,-1144
	addi	a5,a5,-48
	add	a5,a5,s0
	ld	a3,-440(s0)
	mv	a1,a5
	mv	a0,a4
.LEHB91:
	call	_ZN10Polynomial19multiplyPolynomialsERKSt6vectorIlSaIlEES4_l
.LEHE91:
	li	a5,-8192
	addi	a5,a5,1880
	addi	a5,a5,-48
	add	a4,a5,s0
	li	a5,-8192
	addi	a5,a5,-1144
	addi	a5,a5,-48
	add	a5,a5,s0
	mv	a1,a4
	mv	a0,a5
	call	_ZNSt6vectorIlSaIlEEaSEOS1_
	li	a5,-8192
	addi	a5,a5,1880
	addi	a5,a5,-48
	add	a5,a5,s0
	mv	a0,a5
	call	_ZNSt6vectorIlSaIlEED1Ev
	li	a5,-12288
	addi	a5,a5,1112
	addi	a5,a5,-48
	add	a5,a5,s0
	mv	a0,a5
	call	_ZNSt6vectorIlSaIlEED1Ev
	ld	a5,-232(s0)
	addi	a5,a5,1
	sd	a5,-232(s0)
.L256:
	li	a5,-8192
	addi	a5,a5,-592
	addi	a5,a5,-48
	add	a5,a5,s0
	mv	a0,a5
	call	_ZNKSt6vectorIlSaIlEE4sizeEv
	mv	a4,a0
	ld	a5,-232(s0)
	sltu	a5,a5,a4
	andi	a5,a5,0xff
	bne	a5,zero,.L257
	li	a5,-8192
	addi	a5,a5,1936
	addi	a5,a5,-48
	add	a5,a5,s0
	sd	a5,-1232(s0)
	nop
	nop
	li	a5,-8192
	addi	a5,a5,1936
	addi	a5,a5,-48
	add	a3,a5,s0
	li	a5,-8192
	addi	a5,a5,1904
	addi	a5,a5,-48
	add	a4,a5,s0
	mv	a2,a3
	lui	a5,%hi(.LC74)
	addi	a1,a5,%lo(.LC74)
	mv	a0,a4
.LEHB92:
	call	_ZNSt7__cxx1112basic_stringIcSt11char_traitsIcESaIcEEC1IS3_EEPKcRKS3_
.LEHE92:
	li	a5,-8192
	addi	a5,a5,1904
	addi	a5,a5,-48
	add	a4,a5,s0
	li	a5,-8192
	addi	a5,a5,-1144
	addi	a5,a5,-48
	add	a5,a5,s0
	mv	a1,a4
	mv	a0,a5
.LEHB93:
	call	_ZN10Polynomial15printPolynomialERKSt6vectorIlSaIlEERKNSt7__cxx1112basic_stringIcSt11char_traitsIcESaIcEEE
.LEHE93:
	li	a5,-8192
	addi	a5,a5,1904
	addi	a5,a5,-48
	add	a5,a5,s0
	mv	a0,a5
	call	_ZNSt7__cxx1112basic_stringIcSt11char_traitsIcESaIcEED1Ev
	li	a5,-8192
	addi	a5,a5,1936
	addi	a5,a5,-48
	add	a5,a5,s0
	mv	a0,a5
	call	_ZNSt15__new_allocatorIcED2Ev
	nop
	li	a5,-8192
	addi	a5,a5,-48
	add	a5,a5,s0
	addi	a4,a5,1944
	li	a5,-8192
	addi	a5,a5,-1120
	addi	a5,a5,-48
	add	a2,a5,s0
	li	a5,-8192
	addi	a5,a5,-1096
	addi	a5,a5,-48
	add	a5,a5,s0
	ld	a3,-440(s0)
	mv	a1,a5
	mv	a0,a4
.LEHB94:
	call	_ZN10Polynomial17dividePolynomialsERKSt6vectorIlSaIlEES4_l
.LEHE94:
	li	a5,-8192
	addi	a5,a5,1944
	addi	a5,a5,-48
	add	a5,a5,s0
	li	a1,0
	mv	a0,a5
	call	_ZNSt6vectorIS_IlSaIlEESaIS1_EEixEm
	mv	a4,a0
	li	a5,-8192
	addi	a5,a5,-1168
	addi	a5,a5,-48
	add	a5,a5,s0
	mv	a1,a4
	mv	a0,a5
.LEHB95:
	call	_ZNSt6vectorIlSaIlEEC1ERKS1_
.LEHE95:
	li	a5,-8192
	addi	a5,a5,1944
	addi	a5,a5,-48
	add	a5,a5,s0
	mv	a0,a5
	call	_ZNSt6vectorIS_IlSaIlEESaIS1_EED1Ev
	li	a5,-8192
	addi	a5,a5,2000
	addi	a5,a5,-48
	add	a5,a5,s0
	sd	a5,-1240(s0)
	nop
	nop
	li	a5,-8192
	addi	a5,a5,2000
	addi	a5,a5,-48
	add	a3,a5,s0
	li	a5,-8192
	addi	a5,a5,1968
	addi	a5,a5,-48
	add	a4,a5,s0
	mv	a2,a3
	lui	a5,%hi(.LC75)
	addi	a1,a5,%lo(.LC75)
	mv	a0,a4
.LEHB96:
	call	_ZNSt7__cxx1112basic_stringIcSt11char_traitsIcESaIcEEC1IS3_EEPKcRKS3_
.LEHE96:
	li	a5,-8192
	addi	a5,a5,1968
	addi	a5,a5,-48
	add	a4,a5,s0
	li	a5,-8192
	addi	a5,a5,-1168
	addi	a5,a5,-48
	add	a5,a5,s0
	mv	a1,a4
	mv	a0,a5
.LEHB97:
	call	_ZN10Polynomial15printPolynomialERKSt6vectorIlSaIlEERKNSt7__cxx1112basic_stringIcSt11char_traitsIcESaIcEEE
.LEHE97:
	li	a5,-8192
	addi	a5,a5,1968
	addi	a5,a5,-48
	add	a5,a5,s0
	mv	a0,a5
	call	_ZNSt7__cxx1112basic_stringIcSt11char_traitsIcESaIcEED1Ev
	li	a5,-8192
	addi	a5,a5,2000
	addi	a5,a5,-48
	add	a5,a5,s0
	mv	a0,a5
	call	_ZNSt15__new_allocatorIcED2Ev
	nop
	li	a5,-8192
	addi	a5,a5,-48
	add	a5,a5,s0
	lui	a4,%hi(C.130.26)
	addi	a4,a4,%lo(C.130.26)
	sd	a4,2008(a5)
	li	a5,-8192
	addi	a5,a5,-48
	add	a5,a5,s0
	li	a4,11
	sd	a4,2016(a5)
	li	a5,-8192
	addi	a5,a5,2024
	addi	a5,a5,-48
	add	a5,a5,s0
	sd	a5,-1248(s0)
	nop
	nop
	li	a5,-8192
	addi	a5,a5,2024
	addi	a5,a5,-48
	add	a3,a5,s0
	li	a5,-8192
	addi	a5,a5,-48
	add	a5,a5,s0
	li	a4,-8192
	addi	a4,a4,-1192
	addi	a4,a4,-48
	add	a4,a4,s0
	ld	a1,2008(a5)
	ld	a2,2016(a5)
	mv	a0,a4
.LEHB98:
	call	_ZNSt6vectorIlSaIlEEC1ESt16initializer_listIlERKS0_
.LEHE98:
	li	a5,-8192
	addi	a5,a5,2024
	addi	a5,a5,-48
	add	a5,a5,s0
	mv	a0,a5
	call	_ZNSt15__new_allocatorIlED2Ev
	nop
	li	a5,-4096
	addi	a5,a5,-2032
	addi	a5,a5,-48
	add	a5,a5,s0
	sd	a5,-1256(s0)
	nop
	nop
	li	a5,-4096
	addi	a5,a5,-2032
	addi	a5,a5,-48
	add	a3,a5,s0
	li	a5,-8192
	addi	a5,a5,2032
	addi	a5,a5,-48
	add	a4,a5,s0
	mv	a2,a3
	lui	a5,%hi(.LC76)
	addi	a1,a5,%lo(.LC76)
	mv	a0,a4
.LEHB99:
	call	_ZNSt7__cxx1112basic_stringIcSt11char_traitsIcESaIcEEC1IS3_EEPKcRKS3_
.LEHE99:
	li	a5,-8192
	addi	a5,a5,2032
	addi	a5,a5,-48
	add	a4,a5,s0
	li	a5,-8192
	addi	a5,a5,-1192
	addi	a5,a5,-48
	add	a5,a5,s0
	mv	a1,a4
	mv	a0,a5
.LEHB100:
	call	_ZN10Polynomial15printPolynomialERKSt6vectorIlSaIlEERKNSt7__cxx1112basic_stringIcSt11char_traitsIcESaIcEEE
.LEHE100:
	li	a5,-8192
	addi	a5,a5,2032
	addi	a5,a5,-48
	add	a5,a5,s0
	mv	a0,a5
	call	_ZNSt7__cxx1112basic_stringIcSt11char_traitsIcESaIcEED1Ev
	li	a5,-4096
	addi	a5,a5,-2032
	addi	a5,a5,-48
	add	a5,a5,s0
	mv	a0,a5
	call	_ZNSt15__new_allocatorIcED2Ev
	nop
	li	a5,-8192
	addi	a5,a5,-568
	addi	a5,a5,-48
	add	a4,a5,s0
	li	a5,-8192
	addi	a5,a5,-1192
	addi	a5,a5,-48
	add	a5,a5,s0
	ld	a2,-440(s0)
	mv	a1,a4
	mv	a0,a5
.LEHB101:
	call	_ZN10Polynomial16sumOfEvaluationsERKSt6vectorIlSaIlEES4_l
	mv	a4,a0
	li	a5,-8192
	addi	a5,a5,-48
	add	a5,a5,s0
	sd	a4,-1200(a5)
	lui	a5,%hi(.LC77)
	addi	a1,a5,%lo(.LC77)
	lui	a5,%hi(_ZSt4cout)
	addi	a0,a5,%lo(_ZSt4cout)
	call	_ZStlsISt11char_traitsIcEERSt13basic_ostreamIcT_ES5_PKc
	mv	a4,a0
	li	a5,-8192
	addi	a5,a5,-48
	add	a5,a5,s0
	ld	a5,-1200(a5)
	mv	a1,a5
	mv	a0,a4
	call	_ZNSolsEl
	mv	a4,a0
	lui	a5,%hi(_ZSt4endlIcSt11char_traitsIcEERSt13basic_ostreamIT_T0_ES6_)
	addi	a1,a5,%lo(_ZSt4endlIcSt11char_traitsIcEERSt13basic_ostreamIT_T0_ES6_)
	mv	a0,a4
	call	_ZNSolsEPFRSoS_E
	li	a5,10
	sd	a5,-504(s0)
	li	a5,22
	sd	a5,-512(s0)
	li	a5,80
	sd	a5,-520(s0)
	li	a5,2
	sd	a5,-528(s0)
	li	a5,30
	sd	a5,-536(s0)
	li	a5,100
	sd	a5,-544(s0)
	lui	a5,%hi(.LC78)
	addi	a1,a5,%lo(.LC78)
	lui	a5,%hi(_ZSt4cout)
	addi	a0,a5,%lo(_ZSt4cout)
	call	_ZStlsISt11char_traitsIcEERSt13basic_ostreamIcT_ES5_PKc
	mv	a5,a0
	ld	a1,-504(s0)
	mv	a0,a5
	call	_ZNSolsEl
	mv	a4,a0
	lui	a5,%hi(_ZSt4endlIcSt11char_traitsIcEERSt13basic_ostreamIT_T0_ES6_)
	addi	a1,a5,%lo(_ZSt4endlIcSt11char_traitsIcEERSt13basic_ostreamIT_T0_ES6_)
	mv	a0,a4
	call	_ZNSolsEPFRSoS_E
	lui	a5,%hi(.LC79)
	addi	a1,a5,%lo(.LC79)
	lui	a5,%hi(_ZSt4cout)
	addi	a0,a5,%lo(_ZSt4cout)
	call	_ZStlsISt11char_traitsIcEERSt13basic_ostreamIcT_ES5_PKc
	mv	a5,a0
	ld	a1,-512(s0)
	mv	a0,a5
	call	_ZNSolsEl
	mv	a4,a0
	lui	a5,%hi(_ZSt4endlIcSt11char_traitsIcEERSt13basic_ostreamIT_T0_ES6_)
	addi	a1,a5,%lo(_ZSt4endlIcSt11char_traitsIcEERSt13basic_ostreamIT_T0_ES6_)
	mv	a0,a4
	call	_ZNSolsEPFRSoS_E
	lui	a5,%hi(.LC80)
	addi	a1,a5,%lo(.LC80)
	lui	a5,%hi(_ZSt4cout)
	addi	a0,a5,%lo(_ZSt4cout)
	call	_ZStlsISt11char_traitsIcEERSt13basic_ostreamIcT_ES5_PKc
	mv	a5,a0
	ld	a1,-520(s0)
	mv	a0,a5
	call	_ZNSolsEl
	mv	a4,a0
	lui	a5,%hi(_ZSt4endlIcSt11char_traitsIcEERSt13basic_ostreamIT_T0_ES6_)
	addi	a1,a5,%lo(_ZSt4endlIcSt11char_traitsIcEERSt13basic_ostreamIT_T0_ES6_)
	mv	a0,a4
	call	_ZNSolsEPFRSoS_E
	lui	a5,%hi(.LC81)
	addi	a1,a5,%lo(.LC81)
	lui	a5,%hi(_ZSt4cout)
	addi	a0,a5,%lo(_ZSt4cout)
	call	_ZStlsISt11char_traitsIcEERSt13basic_ostreamIcT_ES5_PKc
	mv	a5,a0
	ld	a1,-528(s0)
	mv	a0,a5
	call	_ZNSolsEl
	mv	a4,a0
	lui	a5,%hi(_ZSt4endlIcSt11char_traitsIcEERSt13basic_ostreamIT_T0_ES6_)
	addi	a1,a5,%lo(_ZSt4endlIcSt11char_traitsIcEERSt13basic_ostreamIT_T0_ES6_)
	mv	a0,a4
	call	_ZNSolsEPFRSoS_E
	lui	a5,%hi(.LC82)
	addi	a1,a5,%lo(.LC82)
	lui	a5,%hi(_ZSt4cout)
	addi	a0,a5,%lo(_ZSt4cout)
	call	_ZStlsISt11char_traitsIcEERSt13basic_ostreamIcT_ES5_PKc
	mv	a5,a0
	ld	a1,-536(s0)
	mv	a0,a5
	call	_ZNSolsEl
	mv	a4,a0
	lui	a5,%hi(_ZSt4endlIcSt11char_traitsIcEERSt13basic_ostreamIT_T0_ES6_)
	addi	a1,a5,%lo(_ZSt4endlIcSt11char_traitsIcEERSt13basic_ostreamIT_T0_ES6_)
	mv	a0,a4
	call	_ZNSolsEPFRSoS_E
	lui	a5,%hi(.LC83)
	addi	a1,a5,%lo(.LC83)
	lui	a5,%hi(_ZSt4cout)
	addi	a0,a5,%lo(_ZSt4cout)
	call	_ZStlsISt11char_traitsIcEERSt13basic_ostreamIcT_ES5_PKc
	mv	a5,a0
	ld	a1,-544(s0)
	mv	a0,a5
	call	_ZNSolsEl
	mv	a4,a0
	lui	a5,%hi(_ZSt4endlIcSt11char_traitsIcEERSt13basic_ostreamIT_T0_ES6_)
	addi	a1,a5,%lo(_ZSt4endlIcSt11char_traitsIcEERSt13basic_ostreamIT_T0_ES6_)
	mv	a0,a4
	call	_ZNSolsEPFRSoS_E
	li	a5,-8192
	addi	a5,a5,-48
	add	a5,a5,s0
	addi	a4,a5,-1224
	li	a5,-8192
	addi	a5,a5,-712
	addi	a5,a5,-48
	add	a5,a5,s0
	ld	a3,-440(s0)
	ld	a2,-528(s0)
	mv	a1,a5
	mv	a0,a4
	call	_ZN10Polynomial26multiplyPolynomialByNumberERKSt6vectorIlSaIlEEll
.LEHE101:
	li	a5,-8192
	addi	a5,a5,-48
	add	a5,a5,s0
	addi	a4,a5,-1248
	li	a5,-8192
	addi	a5,a5,-760
	addi	a5,a5,-48
	add	a5,a5,s0
	ld	a3,-440(s0)
	ld	a2,-536(s0)
	mv	a1,a5
	mv	a0,a4
.LEHB102:
	call	_ZN10Polynomial26multiplyPolynomialByNumberERKSt6vectorIlSaIlEEll
.LEHE102:
	li	a5,-8192
	addi	a5,a5,-48
	add	a5,a5,s0
	addi	a4,a5,-1272
	li	a5,-8192
	addi	a5,a5,-808
	addi	a5,a5,-48
	add	a5,a5,s0
	ld	a3,-440(s0)
	ld	a2,-544(s0)
	mv	a1,a5
	mv	a0,a4
.LEHB103:
	call	_ZN10Polynomial26multiplyPolynomialByNumberERKSt6vectorIlSaIlEEll
.LEHE103:
	li	a5,-4096
	addi	a5,a5,-1992
	addi	a5,a5,-48
	add	a5,a5,s0
	sd	a5,-1264(s0)
	nop
	nop
	li	a5,-4096
	addi	a5,a5,-1992
	addi	a5,a5,-48
	add	a3,a5,s0
	li	a5,-4096
	addi	a5,a5,-2024
	addi	a5,a5,-48
	add	a4,a5,s0
	mv	a2,a3
	lui	a5,%hi(.LC84)
	addi	a1,a5,%lo(.LC84)
	mv	a0,a4
.LEHB104:
	call	_ZNSt7__cxx1112basic_stringIcSt11char_traitsIcESaIcEEC1IS3_EEPKcRKS3_
.LEHE104:
	li	a5,-4096
	addi	a5,a5,-2024
	addi	a5,a5,-48
	add	a4,a5,s0
	li	a5,-8192
	addi	a5,a5,-1224
	addi	a5,a5,-48
	add	a5,a5,s0
	mv	a1,a4
	mv	a0,a5
.LEHB105:
	call	_ZN10Polynomial15printPolynomialERKSt6vectorIlSaIlEERKNSt7__cxx1112basic_stringIcSt11char_traitsIcESaIcEEE
.LEHE105:
	li	a5,-4096
	addi	a5,a5,-2024
	addi	a5,a5,-48
	add	a5,a5,s0
	mv	a0,a5
	call	_ZNSt7__cxx1112basic_stringIcSt11char_traitsIcESaIcEED1Ev
	li	a5,-4096
	addi	a5,a5,-1992
	addi	a5,a5,-48
	add	a5,a5,s0
	mv	a0,a5
	call	_ZNSt15__new_allocatorIcED2Ev
	nop
	li	a5,-4096
	addi	a5,a5,-1952
	addi	a5,a5,-48
	add	a5,a5,s0
	sd	a5,-1272(s0)
	nop
	nop
	li	a5,-4096
	addi	a5,a5,-1952
	addi	a5,a5,-48
	add	a3,a5,s0
	li	a5,-4096
	addi	a5,a5,-1984
	addi	a5,a5,-48
	add	a4,a5,s0
	mv	a2,a3
	lui	a5,%hi(.LC85)
	addi	a1,a5,%lo(.LC85)
	mv	a0,a4
.LEHB106:
	call	_ZNSt7__cxx1112basic_stringIcSt11char_traitsIcESaIcEEC1IS3_EEPKcRKS3_
.LEHE106:
	li	a5,-4096
	addi	a5,a5,-1984
	addi	a5,a5,-48
	add	a4,a5,s0
	li	a5,-8192
	addi	a5,a5,-1248
	addi	a5,a5,-48
	add	a5,a5,s0
	mv	a1,a4
	mv	a0,a5
.LEHB107:
	call	_ZN10Polynomial15printPolynomialERKSt6vectorIlSaIlEERKNSt7__cxx1112basic_stringIcSt11char_traitsIcESaIcEEE
.LEHE107:
	li	a5,-4096
	addi	a5,a5,-1984
	addi	a5,a5,-48
	add	a5,a5,s0
	mv	a0,a5
	call	_ZNSt7__cxx1112basic_stringIcSt11char_traitsIcESaIcEED1Ev
	li	a5,-4096
	addi	a5,a5,-1952
	addi	a5,a5,-48
	add	a5,a5,s0
	mv	a0,a5
	call	_ZNSt15__new_allocatorIcED2Ev
	nop
	li	a5,-4096
	addi	a5,a5,-1912
	addi	a5,a5,-48
	add	a5,a5,s0
	sd	a5,-1280(s0)
	nop
	nop
	li	a5,-4096
	addi	a5,a5,-1912
	addi	a5,a5,-48
	add	a3,a5,s0
	li	a5,-4096
	addi	a5,a5,-1944
	addi	a5,a5,-48
	add	a4,a5,s0
	mv	a2,a3
	lui	a5,%hi(.LC86)
	addi	a1,a5,%lo(.LC86)
	mv	a0,a4
.LEHB108:
	call	_ZNSt7__cxx1112basic_stringIcSt11char_traitsIcESaIcEEC1IS3_EEPKcRKS3_
.LEHE108:
	li	a5,-4096
	addi	a5,a5,-1944
	addi	a5,a5,-48
	add	a4,a5,s0
	li	a5,-8192
	addi	a5,a5,-1272
	addi	a5,a5,-48
	add	a5,a5,s0
	mv	a1,a4
	mv	a0,a5
.LEHB109:
	call	_ZN10Polynomial15printPolynomialERKSt6vectorIlSaIlEERKNSt7__cxx1112basic_stringIcSt11char_traitsIcESaIcEEE
.LEHE109:
	li	a5,-4096
	addi	a5,a5,-1944
	addi	a5,a5,-48
	add	a5,a5,s0
	mv	a0,a5
	call	_ZNSt7__cxx1112basic_stringIcSt11char_traitsIcESaIcEED1Ev
	li	a5,-4096
	addi	a5,a5,-1912
	addi	a5,a5,-48
	add	a5,a5,s0
	mv	a0,a5
	call	_ZNSt15__new_allocatorIcED2Ev
	nop
	li	a5,-4096
	addi	a5,a5,-48
	add	a5,a5,s0
	addi	a4,a5,-1904
	li	a5,-8192
	addi	a5,a5,-1248
	addi	a5,a5,-48
	add	a2,a5,s0
	li	a5,-8192
	addi	a5,a5,-1224
	addi	a5,a5,-48
	add	a5,a5,s0
	ld	a3,-440(s0)
	mv	a1,a5
	mv	a0,a4
.LEHB110:
	call	_ZN10Polynomial14addPolynomialsERKSt6vectorIlSaIlEES4_l
.LEHE110:
	li	a5,-8192
	addi	a5,a5,-48
	add	a5,a5,s0
	addi	a4,a5,-1296
	li	a5,-8192
	addi	a5,a5,-1272
	addi	a5,a5,-48
	add	a2,a5,s0
	li	a5,-4096
	addi	a5,a5,-1904
	addi	a5,a5,-48
	add	a5,a5,s0
	ld	a3,-440(s0)
	mv	a1,a5
	mv	a0,a4
.LEHB111:
	call	_ZN10Polynomial14addPolynomialsERKSt6vectorIlSaIlEES4_l
.LEHE111:
	li	a5,-4096
	addi	a5,a5,-1904
	addi	a5,a5,-48
	add	a5,a5,s0
	mv	a0,a5
	call	_ZNSt6vectorIlSaIlEED1Ev
	li	a5,-4096
	addi	a5,a5,-1848
	addi	a5,a5,-48
	add	a5,a5,s0
	sd	a5,-1288(s0)
	nop
	nop
	li	a5,-4096
	addi	a5,a5,-1848
	addi	a5,a5,-48
	add	a3,a5,s0
	li	a5,-4096
	addi	a5,a5,-1880
	addi	a5,a5,-48
	add	a4,a5,s0
	mv	a2,a3
	lui	a5,%hi(.LC87)
	addi	a1,a5,%lo(.LC87)
	mv	a0,a4
.LEHB112:
	call	_ZNSt7__cxx1112basic_stringIcSt11char_traitsIcESaIcEEC1IS3_EEPKcRKS3_
.LEHE112:
	li	a5,-4096
	addi	a5,a5,-1880
	addi	a5,a5,-48
	add	a4,a5,s0
	li	a5,-8192
	addi	a5,a5,-1296
	addi	a5,a5,-48
	add	a5,a5,s0
	mv	a1,a4
	mv	a0,a5
.LEHB113:
	call	_ZN10Polynomial15printPolynomialERKSt6vectorIlSaIlEERKNSt7__cxx1112basic_stringIcSt11char_traitsIcESaIcEEE
.LEHE113:
	li	a5,-4096
	addi	a5,a5,-1880
	addi	a5,a5,-48
	add	a5,a5,s0
	mv	a0,a5
	call	_ZNSt7__cxx1112basic_stringIcSt11char_traitsIcESaIcEED1Ev
	li	a5,-4096
	addi	a5,a5,-1848
	addi	a5,a5,-48
	add	a5,a5,s0
	mv	a0,a5
	call	_ZNSt15__new_allocatorIcED2Ev
	nop
	li	a5,-8192
	addi	a5,a5,-48
	add	a5,a5,s0
	addi	a5,a5,-1320
	ld	a3,-440(s0)
	ld	a2,-432(s0)
	ld	a1,-504(s0)
	mv	a0,a5
.LEHB114:
	call	_ZN10Polynomial29calculatePolynomial_r_alpha_xElll
.LEHE114:
	li	a5,-4096
	addi	a5,a5,-1808
	addi	a5,a5,-48
	add	a5,a5,s0
	sd	a5,-1296(s0)
	nop
	nop
	li	a5,-4096
	addi	a5,a5,-1808
	addi	a5,a5,-48
	add	a3,a5,s0
	li	a5,-4096
	addi	a5,a5,-1840
	addi	a5,a5,-48
	add	a4,a5,s0
	mv	a2,a3
	lui	a5,%hi(.LC88)
	addi	a1,a5,%lo(.LC88)
	mv	a0,a4
.LEHB115:
	call	_ZNSt7__cxx1112basic_stringIcSt11char_traitsIcESaIcEEC1IS3_EEPKcRKS3_
.LEHE115:
	li	a5,-4096
	addi	a5,a5,-1840
	addi	a5,a5,-48
	add	a4,a5,s0
	li	a5,-8192
	addi	a5,a5,-1320
	addi	a5,a5,-48
	add	a5,a5,s0
	mv	a1,a4
	mv	a0,a5
.LEHB116:
	call	_ZN10Polynomial15printPolynomialERKSt6vectorIlSaIlEERKNSt7__cxx1112basic_stringIcSt11char_traitsIcESaIcEEE
.LEHE116:
	li	a5,-4096
	addi	a5,a5,-1840
	addi	a5,a5,-48
	add	a5,a5,s0
	mv	a0,a5
	call	_ZNSt7__cxx1112basic_stringIcSt11char_traitsIcESaIcEED1Ev
	li	a5,-4096
	addi	a5,a5,-1808
	addi	a5,a5,-48
	add	a5,a5,s0
	mv	a0,a5
	call	_ZNSt15__new_allocatorIcED2Ev
	nop
	li	a5,-8192
	addi	a5,a5,-48
	add	a5,a5,s0
	addi	a4,a5,-1344
	li	a5,-8192
	addi	a5,a5,-1296
	addi	a5,a5,-48
	add	a2,a5,s0
	li	a5,-8192
	addi	a5,a5,-1320
	addi	a5,a5,-48
	add	a5,a5,s0
	ld	a3,-440(s0)
	mv	a1,a5
	mv	a0,a4
.LEHB117:
	call	_ZN10Polynomial19multiplyPolynomialsERKSt6vectorIlSaIlEES4_l
.LEHE117:
	li	a5,-4096
	addi	a5,a5,-1768
	addi	a5,a5,-48
	add	a5,a5,s0
	sd	a5,-1304(s0)
	nop
	nop
	li	a5,-4096
	addi	a5,a5,-1768
	addi	a5,a5,-48
	add	a3,a5,s0
	li	a5,-4096
	addi	a5,a5,-1800
	addi	a5,a5,-48
	add	a4,a5,s0
	mv	a2,a3
	lui	a5,%hi(.LC89)
	addi	a1,a5,%lo(.LC89)
	mv	a0,a4
.LEHB118:
	call	_ZNSt7__cxx1112basic_stringIcSt11char_traitsIcESaIcEEC1IS3_EEPKcRKS3_
.LEHE118:
	li	a5,-4096
	addi	a5,a5,-1800
	addi	a5,a5,-48
	add	a4,a5,s0
	li	a5,-8192
	addi	a5,a5,-1344
	addi	a5,a5,-48
	add	a5,a5,s0
	mv	a1,a4
	mv	a0,a5
.LEHB119:
	call	_ZN10Polynomial15printPolynomialERKSt6vectorIlSaIlEERKNSt7__cxx1112basic_stringIcSt11char_traitsIcESaIcEEE
.LEHE119:
	li	a5,-4096
	addi	a5,a5,-1800
	addi	a5,a5,-48
	add	a5,a5,s0
	mv	a0,a5
	call	_ZNSt7__cxx1112basic_stringIcSt11char_traitsIcESaIcEED1Ev
	li	a5,-4096
	addi	a5,a5,-1768
	addi	a5,a5,-48
	add	a5,a5,s0
	mv	a0,a5
	call	_ZNSt15__new_allocatorIcED2Ev
	nop
	li	a5,-8192
	addi	a5,a5,-48
	add	a5,a5,s0
	addi	a4,a5,-1368
	li	a5,-8192
	addi	a5,a5,-832
	addi	a5,a5,-48
	add	a5,a5,s0
	ld	a2,-440(s0)
	mv	a1,a5
	mv	a0,a4
.LEHB120:
	call	_ZN10Polynomial17expandPolynomialsERKSt6vectorIlSaIlEEl
.LEHE120:
	li	a5,-4096
	addi	a5,a5,-1728
	addi	a5,a5,-48
	add	a5,a5,s0
	sd	a5,-1312(s0)
	nop
	nop
	li	a5,-4096
	addi	a5,a5,-1728
	addi	a5,a5,-48
	add	a3,a5,s0
	li	a5,-4096
	addi	a5,a5,-1760
	addi	a5,a5,-48
	add	a4,a5,s0
	mv	a2,a3
	lui	a5,%hi(.LC90)
	addi	a1,a5,%lo(.LC90)
	mv	a0,a4
.LEHB121:
	call	_ZNSt7__cxx1112basic_stringIcSt11char_traitsIcESaIcEEC1IS3_EEPKcRKS3_
.LEHE121:
	li	a5,-4096
	addi	a5,a5,-1760
	addi	a5,a5,-48
	add	a4,a5,s0
	li	a5,-8192
	addi	a5,a5,-1368
	addi	a5,a5,-48
	add	a5,a5,s0
	mv	a1,a4
	mv	a0,a5
.LEHB122:
	call	_ZN10Polynomial15printPolynomialERKSt6vectorIlSaIlEERKNSt7__cxx1112basic_stringIcSt11char_traitsIcESaIcEEE
.LEHE122:
	li	a5,-4096
	addi	a5,a5,-1760
	addi	a5,a5,-48
	add	a5,a5,s0
	mv	a0,a5
	call	_ZNSt7__cxx1112basic_stringIcSt11char_traitsIcESaIcEED1Ev
	li	a5,-4096
	addi	a5,a5,-1728
	addi	a5,a5,-48
	add	a5,a5,s0
	mv	a0,a5
	call	_ZNSt15__new_allocatorIcED2Ev
	nop
	li	a5,-4096
	addi	a5,a5,-48
	add	a5,a5,s0
	addi	a4,a5,-1720
	li	a5,-8192
	addi	a5,a5,-1368
	addi	a5,a5,-48
	add	a2,a5,s0
	li	a5,-8192
	addi	a5,a5,-1048
	addi	a5,a5,-48
	add	a5,a5,s0
	ld	a3,-440(s0)
	mv	a1,a5
	mv	a0,a4
.LEHB123:
	call	_ZN10Polynomial19multiplyPolynomialsERKSt6vectorIlSaIlEES4_l
.LEHE123:
	li	a5,-8192
	addi	a5,a5,-48
	add	a5,a5,s0
	addi	a4,a5,-1392
	li	a5,-8192
	addi	a5,a5,-928
	addi	a5,a5,-48
	add	a2,a5,s0
	li	a5,-4096
	addi	a5,a5,-1720
	addi	a5,a5,-48
	add	a5,a5,s0
	ld	a3,-440(s0)
	mv	a1,a5
	mv	a0,a4
.LEHB124:
	call	_ZN10Polynomial14addPolynomialsERKSt6vectorIlSaIlEES4_l
.LEHE124:
	li	a5,-4096
	addi	a5,a5,-1720
	addi	a5,a5,-48
	add	a5,a5,s0
	mv	a0,a5
	call	_ZNSt6vectorIlSaIlEED1Ev
	li	a5,-4096
	addi	a5,a5,-1664
	addi	a5,a5,-48
	add	a5,a5,s0
	sd	a5,-1320(s0)
	nop
	nop
	li	a5,-4096
	addi	a5,a5,-1664
	addi	a5,a5,-48
	add	a3,a5,s0
	li	a5,-4096
	addi	a5,a5,-1696
	addi	a5,a5,-48
	add	a4,a5,s0
	mv	a2,a3
	lui	a5,%hi(.LC91)
	addi	a1,a5,%lo(.LC91)
	mv	a0,a4
.LEHB125:
	call	_ZNSt7__cxx1112basic_stringIcSt11char_traitsIcESaIcEEC1IS3_EEPKcRKS3_
.LEHE125:
	li	a5,-4096
	addi	a5,a5,-1696
	addi	a5,a5,-48
	add	a4,a5,s0
	li	a5,-8192
	addi	a5,a5,-1392
	addi	a5,a5,-48
	add	a5,a5,s0
	mv	a1,a4
	mv	a0,a5
.LEHB126:
	call	_ZN10Polynomial15printPolynomialERKSt6vectorIlSaIlEERKNSt7__cxx1112basic_stringIcSt11char_traitsIcESaIcEEE
.LEHE126:
	li	a5,-4096
	addi	a5,a5,-1696
	addi	a5,a5,-48
	add	a5,a5,s0
	mv	a0,a5
	call	_ZNSt7__cxx1112basic_stringIcSt11char_traitsIcESaIcEED1Ev
	li	a5,-4096
	addi	a5,a5,-1664
	addi	a5,a5,-48
	add	a5,a5,s0
	mv	a0,a5
	call	_ZNSt15__new_allocatorIcED2Ev
	nop
	li	a5,-4096
	addi	a5,a5,-1656
	addi	a5,a5,-48
	add	a5,a5,s0
	sd	a5,-1328(s0)
	nop
	nop
	li	a5,-4096
	addi	a5,a5,-1656
	addi	a5,a5,-48
	add	a4,a5,s0
	li	a5,-8192
	addi	a5,a5,-1416
	addi	a5,a5,-48
	add	a5,a5,s0
	mv	a2,a4
	li	a1,2
	mv	a0,a5
.LEHB127:
	call	_ZNSt6vectorIlSaIlEEC1EmRKS0_
.LEHE127:
	li	a5,-4096
	addi	a5,a5,-1656
	addi	a5,a5,-48
	add	a5,a5,s0
	mv	a0,a5
	call	_ZNSt15__new_allocatorIlED2Ev
	nop
	sd	zero,-240(s0)
	j	.L258
.L262:
	ld	a4,-240(s0)
	li	a5,-8192
	addi	a5,a5,-280
	addi	a5,a5,-48
	add	a5,a5,s0
	mv	a1,a4
	mv	a0,a5
	call	_ZNSt6vectorIlSaIlEEixEm
	mv	a5,a0
	ld	s1,0(a5)
	li	a5,-8192
	addi	a5,a5,-568
	addi	a5,a5,-48
	add	a5,a5,s0
	mv	a0,a5
	call	_ZNKSt6vectorIlSaIlEE4sizeEv
	mv	a5,a0
	mv	a4,a5
	li	a5,-12288
	addi	a5,a5,-48
	add	a5,a5,s0
	addi	a5,a5,1088
	ld	a3,-440(s0)
	mv	a2,a4
	mv	a1,s1
	mv	a0,a5
.LEHB128:
	call	_ZN10Polynomial29calculatePolynomial_r_alpha_xElll
.LEHE128:
	ld	a4,-240(s0)
	li	a5,-8192
	addi	a5,a5,-280
	addi	a5,a5,-48
	add	a5,a5,s0
	mv	a1,a4
	mv	a0,a5
	call	_ZNSt6vectorIlSaIlEEixEm
	mv	a5,a0
	ld	a4,0(a5)
	li	a5,-12288
	addi	a5,a5,1088
	addi	a5,a5,-48
	add	a5,a5,s0
	ld	a2,-440(s0)
	mv	a1,a4
	mv	a0,a5
.LEHB129:
	call	_ZN10Polynomial18evaluatePolynomialERKSt6vectorIlSaIlEEll
	mv	a5,a0
	sd	a5,-248(s0)
	ld	a4,-240(s0)
	li	a5,-8192
	addi	a5,a5,-304
	addi	a5,a5,-48
	add	a5,a5,s0
	mv	a1,a4
	mv	a0,a5
	call	_ZNSt6vectorIlSaIlEEixEm
	mv	a5,a0
	ld	s1,0(a5)
	li	a5,-8192
	addi	a5,a5,-568
	addi	a5,a5,-48
	add	a5,a5,s0
	mv	a0,a5
	call	_ZNKSt6vectorIlSaIlEE4sizeEv
	mv	a5,a0
	mv	a4,a5
	li	a5,-12288
	addi	a5,a5,-48
	add	a5,a5,s0
	addi	a5,a5,1064
	ld	a3,-440(s0)
	mv	a2,a4
	mv	a1,s1
	mv	a0,a5
	call	_ZN10Polynomial29calculatePolynomial_r_alpha_xElll
.LEHE129:
	ld	a4,-240(s0)
	li	a5,-8192
	addi	a5,a5,-328
	addi	a5,a5,-48
	add	a5,a5,s0
	mv	a1,a4
	mv	a0,a5
	call	_ZNSt6vectorIlSaIlEEixEm
	mv	a5,a0
	ld	a4,0(a5)
	ld	a5,-248(s0)
	mul	a4,a4,a5
	ld	a5,-440(s0)
	rem	a5,a4,a5
	sd	a5,-248(s0)
	ld	a5,-248(s0)
	bge	a5,zero,.L259
	ld	a4,-248(s0)
	ld	a5,-440(s0)
	add	a5,a4,a5
	sd	a5,-248(s0)
.L259:
	li	a5,-4096
	addi	a5,a5,-48
	add	a5,a5,s0
	addi	a4,a5,-1648
	li	a5,-12288
	addi	a5,a5,1064
	addi	a5,a5,-48
	add	a5,a5,s0
	ld	a3,-440(s0)
	ld	a2,-248(s0)
	mv	a1,a5
	mv	a0,a4
.LEHB130:
	call	_ZN10Polynomial26multiplyPolynomialByNumberERKSt6vectorIlSaIlEEll
	li	a5,-4096
	addi	a5,a5,-1648
	addi	a5,a5,-48
	add	a4,a5,s0
	li	a5,-12288
	addi	a5,a5,1064
	addi	a5,a5,-48
	add	a5,a5,s0
	mv	a1,a4
	mv	a0,a5
	call	_ZNSt6vectorIlSaIlEEaSEOS1_
	li	a5,-4096
	addi	a5,a5,-1648
	addi	a5,a5,-48
	add	a5,a5,s0
	mv	a0,a5
	call	_ZNSt6vectorIlSaIlEED1Ev
	ld	a4,-240(s0)
	li	a5,-8192
	addi	a5,a5,-280
	addi	a5,a5,-48
	add	a5,a5,s0
	mv	a1,a4
	mv	a0,a5
	call	_ZNSt6vectorIlSaIlEEixEm
	mv	a5,a0
	ld	s1,0(a5)
	li	a5,-8192
	addi	a5,a5,-568
	addi	a5,a5,-48
	add	a5,a5,s0
	mv	a0,a5
	call	_ZNKSt6vectorIlSaIlEE4sizeEv
	mv	a5,a0
	ld	a3,-440(s0)
	mv	a2,a5
	mv	a1,s1
	ld	a0,-504(s0)
	call	_ZN10Polynomial29calculatePolynomial_r_alpha_kEllll
	mv	a2,a0
	li	a5,-4096
	addi	a5,a5,-48
	add	a5,a5,s0
	addi	a4,a5,-1624
	li	a5,-12288
	addi	a5,a5,1064
	addi	a5,a5,-48
	add	a5,a5,s0
	ld	a3,-440(s0)
	mv	a1,a5
	mv	a0,a4
	call	_ZN10Polynomial26multiplyPolynomialByNumberERKSt6vectorIlSaIlEEll
	li	a5,-4096
	addi	a5,a5,-1624
	addi	a5,a5,-48
	add	a4,a5,s0
	li	a5,-12288
	addi	a5,a5,1064
	addi	a5,a5,-48
	add	a5,a5,s0
	mv	a1,a4
	mv	a0,a5
	call	_ZNSt6vectorIlSaIlEEaSEOS1_
	li	a5,-4096
	addi	a5,a5,-1624
	addi	a5,a5,-48
	add	a5,a5,s0
	mv	a0,a5
	call	_ZNSt6vectorIlSaIlEED1Ev
	ld	a5,-240(s0)
	ble	a5,zero,.L260
	li	a5,-4096
	addi	a5,a5,-48
	add	a5,a5,s0
	addi	a4,a5,-1600
	li	a5,-12288
	addi	a5,a5,1064
	addi	a5,a5,-48
	add	a2,a5,s0
	li	a5,-8192
	addi	a5,a5,-1416
	addi	a5,a5,-48
	add	a5,a5,s0
	ld	a3,-440(s0)
	mv	a1,a5
	mv	a0,a4
	call	_ZN10Polynomial14addPolynomialsERKSt6vectorIlSaIlEES4_l
	li	a5,-4096
	addi	a5,a5,-1600
	addi	a5,a5,-48
	add	a4,a5,s0
	li	a5,-8192
	addi	a5,a5,-1416
	addi	a5,a5,-48
	add	a5,a5,s0
	mv	a1,a4
	mv	a0,a5
	call	_ZNSt6vectorIlSaIlEEaSEOS1_
	li	a5,-4096
	addi	a5,a5,-1600
	addi	a5,a5,-48
	add	a5,a5,s0
	mv	a0,a5
	call	_ZNSt6vectorIlSaIlEED1Ev
	j	.L261
.L260:
	li	a5,-12288
	addi	a5,a5,1064
	addi	a5,a5,-48
	add	a4,a5,s0
	li	a5,-8192
	addi	a5,a5,-1416
	addi	a5,a5,-48
	add	a5,a5,s0
	mv	a1,a4
	mv	a0,a5
	call	_ZNSt6vectorIlSaIlEEaSERKS1_
.LEHE130:
.L261:
	li	a5,-12288
	addi	a5,a5,1064
	addi	a5,a5,-48
	add	a5,a5,s0
	mv	a0,a5
	call	_ZNSt6vectorIlSaIlEED1Ev
	li	a5,-12288
	addi	a5,a5,1088
	addi	a5,a5,-48
	add	a5,a5,s0
	mv	a0,a5
	call	_ZNSt6vectorIlSaIlEED1Ev
	ld	a5,-240(s0)
	addi	a5,a5,1
	sd	a5,-240(s0)
.L258:
	li	a5,-8192
	addi	a5,a5,-232
	addi	a5,a5,-48
	add	a5,a5,s0
	mv	a0,a5
	call	_ZNKSt6vectorIlSaIlEE4sizeEv
	mv	a4,a0
	ld	a5,-240(s0)
	sgtu	a5,a4,a5
	andi	a5,a5,0xff
	bne	a5,zero,.L262
	li	a5,-4096
	addi	a5,a5,-1544
	addi	a5,a5,-48
	add	a5,a5,s0
	sd	a5,-1336(s0)
	nop
	nop
	li	a5,-4096
	addi	a5,a5,-1544
	addi	a5,a5,-48
	add	a3,a5,s0
	li	a5,-4096
	addi	a5,a5,-1576
	addi	a5,a5,-48
	add	a4,a5,s0
	mv	a2,a3
	lui	a5,%hi(.LC92)
	addi	a1,a5,%lo(.LC92)
	mv	a0,a4
.LEHB131:
	call	_ZNSt7__cxx1112basic_stringIcSt11char_traitsIcESaIcEEC1IS3_EEPKcRKS3_
.LEHE131:
	li	a5,-4096
	addi	a5,a5,-1576
	addi	a5,a5,-48
	add	a4,a5,s0
	li	a5,-8192
	addi	a5,a5,-1416
	addi	a5,a5,-48
	add	a5,a5,s0
	mv	a1,a4
	mv	a0,a5
.LEHB132:
	call	_ZN10Polynomial15printPolynomialERKSt6vectorIlSaIlEERKNSt7__cxx1112basic_stringIcSt11char_traitsIcESaIcEEE
.LEHE132:
	li	a5,-4096
	addi	a5,a5,-1576
	addi	a5,a5,-48
	add	a5,a5,s0
	mv	a0,a5
	call	_ZNSt7__cxx1112basic_stringIcSt11char_traitsIcESaIcEED1Ev
	li	a5,-4096
	addi	a5,a5,-1544
	addi	a5,a5,-48
	add	a5,a5,s0
	mv	a0,a5
	call	_ZNSt15__new_allocatorIcED2Ev
	nop
	li	a5,-4096
	addi	a5,a5,-1536
	addi	a5,a5,-48
	add	a5,a5,s0
	sd	a5,-1344(s0)
	nop
	nop
	li	a5,-4096
	addi	a5,a5,-1536
	addi	a5,a5,-48
	add	a4,a5,s0
	li	a5,-8192
	addi	a5,a5,-1440
	addi	a5,a5,-48
	add	a5,a5,s0
	mv	a2,a4
	li	a1,2
	mv	a0,a5
.LEHB133:
	call	_ZNSt6vectorIlSaIlEEC1EmRKS0_
.LEHE133:
	li	a5,-4096
	addi	a5,a5,-1536
	addi	a5,a5,-48
	add	a5,a5,s0
	mv	a0,a5
	call	_ZNSt15__new_allocatorIlED2Ev
	nop
	sd	zero,-256(s0)
	j	.L263
.L267:
	ld	a4,-256(s0)
	li	a5,-8192
	addi	a5,a5,-352
	addi	a5,a5,-48
	add	a5,a5,s0
	mv	a1,a4
	mv	a0,a5
	call	_ZNSt6vectorIlSaIlEEixEm
	mv	a5,a0
	ld	s1,0(a5)
	li	a5,-8192
	addi	a5,a5,-568
	addi	a5,a5,-48
	add	a5,a5,s0
	mv	a0,a5
	call	_ZNKSt6vectorIlSaIlEE4sizeEv
	mv	a5,a0
	mv	a4,a5
	li	a5,-12288
	addi	a5,a5,-48
	add	a5,a5,s0
	addi	a5,a5,1040
	ld	a3,-440(s0)
	mv	a2,a4
	mv	a1,s1
	mv	a0,a5
.LEHB134:
	call	_ZN10Polynomial29calculatePolynomial_r_alpha_xElll
.LEHE134:
	ld	a4,-256(s0)
	li	a5,-8192
	addi	a5,a5,-352
	addi	a5,a5,-48
	add	a5,a5,s0
	mv	a1,a4
	mv	a0,a5
	call	_ZNSt6vectorIlSaIlEEixEm
	mv	a5,a0
	ld	a4,0(a5)
	li	a5,-12288
	addi	a5,a5,1040
	addi	a5,a5,-48
	add	a5,a5,s0
	ld	a2,-440(s0)
	mv	a1,a4
	mv	a0,a5
.LEHB135:
	call	_ZN10Polynomial18evaluatePolynomialERKSt6vectorIlSaIlEEll
	mv	a5,a0
	sd	a5,-264(s0)
	ld	a4,-256(s0)
	li	a5,-8192
	addi	a5,a5,-376
	addi	a5,a5,-48
	add	a5,a5,s0
	mv	a1,a4
	mv	a0,a5
	call	_ZNSt6vectorIlSaIlEEixEm
	mv	a5,a0
	ld	s1,0(a5)
	li	a5,-8192
	addi	a5,a5,-568
	addi	a5,a5,-48
	add	a5,a5,s0
	mv	a0,a5
	call	_ZNKSt6vectorIlSaIlEE4sizeEv
	mv	a5,a0
	mv	a4,a5
	li	a5,-12288
	addi	a5,a5,-48
	add	a5,a5,s0
	addi	a5,a5,1016
	ld	a3,-440(s0)
	mv	a2,a4
	mv	a1,s1
	mv	a0,a5
	call	_ZN10Polynomial29calculatePolynomial_r_alpha_xElll
.LEHE135:
	ld	a4,-256(s0)
	li	a5,-8192
	addi	a5,a5,-400
	addi	a5,a5,-48
	add	a5,a5,s0
	mv	a1,a4
	mv	a0,a5
	call	_ZNSt6vectorIlSaIlEEixEm
	mv	a5,a0
	ld	a4,0(a5)
	ld	a5,-264(s0)
	mul	a4,a4,a5
	ld	a5,-440(s0)
	rem	a5,a4,a5
	sd	a5,-264(s0)
	ld	a5,-264(s0)
	bge	a5,zero,.L264
	ld	a4,-264(s0)
	ld	a5,-440(s0)
	add	a5,a4,a5
	sd	a5,-264(s0)
.L264:
	li	a5,-4096
	addi	a5,a5,-48
	add	a5,a5,s0
	addi	a4,a5,-1528
	li	a5,-12288
	addi	a5,a5,1016
	addi	a5,a5,-48
	add	a5,a5,s0
	ld	a3,-440(s0)
	ld	a2,-264(s0)
	mv	a1,a5
	mv	a0,a4
.LEHB136:
	call	_ZN10Polynomial26multiplyPolynomialByNumberERKSt6vectorIlSaIlEEll
	li	a5,-4096
	addi	a5,a5,-1528
	addi	a5,a5,-48
	add	a4,a5,s0
	li	a5,-12288
	addi	a5,a5,1016
	addi	a5,a5,-48
	add	a5,a5,s0
	mv	a1,a4
	mv	a0,a5
	call	_ZNSt6vectorIlSaIlEEaSEOS1_
	li	a5,-4096
	addi	a5,a5,-1528
	addi	a5,a5,-48
	add	a5,a5,s0
	mv	a0,a5
	call	_ZNSt6vectorIlSaIlEED1Ev
	ld	a4,-256(s0)
	li	a5,-8192
	addi	a5,a5,-352
	addi	a5,a5,-48
	add	a5,a5,s0
	mv	a1,a4
	mv	a0,a5
	call	_ZNSt6vectorIlSaIlEEixEm
	mv	a5,a0
	ld	s1,0(a5)
	li	a5,-8192
	addi	a5,a5,-568
	addi	a5,a5,-48
	add	a5,a5,s0
	mv	a0,a5
	call	_ZNKSt6vectorIlSaIlEE4sizeEv
	mv	a5,a0
	ld	a3,-440(s0)
	mv	a2,a5
	mv	a1,s1
	ld	a0,-504(s0)
	call	_ZN10Polynomial29calculatePolynomial_r_alpha_kEllll
	mv	a2,a0
	li	a5,-4096
	addi	a5,a5,-48
	add	a5,a5,s0
	addi	a4,a5,-1504
	li	a5,-12288
	addi	a5,a5,1016
	addi	a5,a5,-48
	add	a5,a5,s0
	ld	a3,-440(s0)
	mv	a1,a5
	mv	a0,a4
	call	_ZN10Polynomial26multiplyPolynomialByNumberERKSt6vectorIlSaIlEEll
	li	a5,-4096
	addi	a5,a5,-1504
	addi	a5,a5,-48
	add	a4,a5,s0
	li	a5,-12288
	addi	a5,a5,1016
	addi	a5,a5,-48
	add	a5,a5,s0
	mv	a1,a4
	mv	a0,a5
	call	_ZNSt6vectorIlSaIlEEaSEOS1_
	li	a5,-4096
	addi	a5,a5,-1504
	addi	a5,a5,-48
	add	a5,a5,s0
	mv	a0,a5
	call	_ZNSt6vectorIlSaIlEED1Ev
	ld	a5,-256(s0)
	ble	a5,zero,.L265
	li	a5,-4096
	addi	a5,a5,-48
	add	a5,a5,s0
	addi	a4,a5,-1480
	li	a5,-12288
	addi	a5,a5,1016
	addi	a5,a5,-48
	add	a2,a5,s0
	li	a5,-8192
	addi	a5,a5,-1440
	addi	a5,a5,-48
	add	a5,a5,s0
	ld	a3,-440(s0)
	mv	a1,a5
	mv	a0,a4
	call	_ZN10Polynomial14addPolynomialsERKSt6vectorIlSaIlEES4_l
	li	a5,-4096
	addi	a5,a5,-1480
	addi	a5,a5,-48
	add	a4,a5,s0
	li	a5,-8192
	addi	a5,a5,-1440
	addi	a5,a5,-48
	add	a5,a5,s0
	mv	a1,a4
	mv	a0,a5
	call	_ZNSt6vectorIlSaIlEEaSEOS1_
	li	a5,-4096
	addi	a5,a5,-1480
	addi	a5,a5,-48
	add	a5,a5,s0
	mv	a0,a5
	call	_ZNSt6vectorIlSaIlEED1Ev
	j	.L266
.L265:
	li	a5,-12288
	addi	a5,a5,1016
	addi	a5,a5,-48
	add	a4,a5,s0
	li	a5,-8192
	addi	a5,a5,-1440
	addi	a5,a5,-48
	add	a5,a5,s0
	mv	a1,a4
	mv	a0,a5
	call	_ZNSt6vectorIlSaIlEEaSERKS1_
.LEHE136:
.L266:
	li	a5,-12288
	addi	a5,a5,1016
	addi	a5,a5,-48
	add	a5,a5,s0
	mv	a0,a5
	call	_ZNSt6vectorIlSaIlEED1Ev
	li	a5,-12288
	addi	a5,a5,1040
	addi	a5,a5,-48
	add	a5,a5,s0
	mv	a0,a5
	call	_ZNSt6vectorIlSaIlEED1Ev
	ld	a5,-256(s0)
	addi	a5,a5,1
	sd	a5,-256(s0)
.L263:
	li	a5,-8192
	addi	a5,a5,-256
	addi	a5,a5,-48
	add	a5,a5,s0
	li	a1,0
	mv	a0,a5
	call	_ZNSt6vectorIS_IlSaIlEESaIS1_EEixEm
	mv	a5,a0
	mv	a0,a5
	call	_ZNKSt6vectorIlSaIlEE4sizeEv
	mv	a4,a0
	ld	a5,-256(s0)
	sgtu	a5,a4,a5
	andi	a5,a5,0xff
	bne	a5,zero,.L267
	li	a5,-4096
	addi	a5,a5,-1424
	addi	a5,a5,-48
	add	a5,a5,s0
	sd	a5,-1352(s0)
	nop
	nop
	li	a5,-4096
	addi	a5,a5,-1424
	addi	a5,a5,-48
	add	a3,a5,s0
	li	a5,-4096
	addi	a5,a5,-1456
	addi	a5,a5,-48
	add	a4,a5,s0
	mv	a2,a3
	lui	a5,%hi(.LC93)
	addi	a1,a5,%lo(.LC93)
	mv	a0,a4
.LEHB137:
	call	_ZNSt7__cxx1112basic_stringIcSt11char_traitsIcESaIcEEC1IS3_EEPKcRKS3_
.LEHE137:
	li	a5,-4096
	addi	a5,a5,-1456
	addi	a5,a5,-48
	add	a4,a5,s0
	li	a5,-8192
	addi	a5,a5,-1440
	addi	a5,a5,-48
	add	a5,a5,s0
	mv	a1,a4
	mv	a0,a5
.LEHB138:
	call	_ZN10Polynomial15printPolynomialERKSt6vectorIlSaIlEERKNSt7__cxx1112basic_stringIcSt11char_traitsIcESaIcEEE
.LEHE138:
	li	a5,-4096
	addi	a5,a5,-1456
	addi	a5,a5,-48
	add	a5,a5,s0
	mv	a0,a5
	call	_ZNSt7__cxx1112basic_stringIcSt11char_traitsIcESaIcEED1Ev
	li	a5,-4096
	addi	a5,a5,-1424
	addi	a5,a5,-48
	add	a5,a5,s0
	mv	a0,a5
	call	_ZNSt15__new_allocatorIcED2Ev
	nop
	li	a5,-4096
	addi	a5,a5,-1416
	addi	a5,a5,-48
	add	a5,a5,s0
	sd	a5,-1360(s0)
	nop
	nop
	li	a5,-4096
	addi	a5,a5,-1416
	addi	a5,a5,-48
	add	a4,a5,s0
	li	a5,-8192
	addi	a5,a5,-1464
	addi	a5,a5,-48
	add	a5,a5,s0
	mv	a2,a4
	li	a1,2
	mv	a0,a5
.LEHB139:
	call	_ZNSt6vectorIlSaIlEEC1EmRKS0_
.LEHE139:
	li	a5,-4096
	addi	a5,a5,-1416
	addi	a5,a5,-48
	add	a5,a5,s0
	mv	a0,a5
	call	_ZNSt15__new_allocatorIlED2Ev
	nop
	sd	zero,-272(s0)
	j	.L268
.L272:
	ld	a4,-272(s0)
	li	a5,-8192
	addi	a5,a5,-424
	addi	a5,a5,-48
	add	a5,a5,s0
	mv	a1,a4
	mv	a0,a5
	call	_ZNSt6vectorIlSaIlEEixEm
	mv	a5,a0
	ld	s1,0(a5)
	li	a5,-8192
	addi	a5,a5,-568
	addi	a5,a5,-48
	add	a5,a5,s0
	mv	a0,a5
	call	_ZNKSt6vectorIlSaIlEE4sizeEv
	mv	a5,a0
	mv	a4,a5
	li	a5,-12288
	addi	a5,a5,-48
	add	a5,a5,s0
	addi	a5,a5,992
	ld	a3,-440(s0)
	mv	a2,a4
	mv	a1,s1
	mv	a0,a5
.LEHB140:
	call	_ZN10Polynomial29calculatePolynomial_r_alpha_xElll
.LEHE140:
	ld	a4,-272(s0)
	li	a5,-8192
	addi	a5,a5,-424
	addi	a5,a5,-48
	add	a5,a5,s0
	mv	a1,a4
	mv	a0,a5
	call	_ZNSt6vectorIlSaIlEEixEm
	mv	a5,a0
	ld	a4,0(a5)
	li	a5,-12288
	addi	a5,a5,992
	addi	a5,a5,-48
	add	a5,a5,s0
	ld	a2,-440(s0)
	mv	a1,a4
	mv	a0,a5
.LEHB141:
	call	_ZN10Polynomial18evaluatePolynomialERKSt6vectorIlSaIlEEll
	mv	a5,a0
	sd	a5,-280(s0)
	ld	a4,-272(s0)
	li	a5,-8192
	addi	a5,a5,-448
	addi	a5,a5,-48
	add	a5,a5,s0
	mv	a1,a4
	mv	a0,a5
	call	_ZNSt6vectorIlSaIlEEixEm
	mv	a5,a0
	ld	s1,0(a5)
	li	a5,-8192
	addi	a5,a5,-568
	addi	a5,a5,-48
	add	a5,a5,s0
	mv	a0,a5
	call	_ZNKSt6vectorIlSaIlEE4sizeEv
	mv	a5,a0
	mv	a4,a5
	li	a5,-12288
	addi	a5,a5,-48
	add	a5,a5,s0
	addi	a5,a5,968
	ld	a3,-440(s0)
	mv	a2,a4
	mv	a1,s1
	mv	a0,a5
	call	_ZN10Polynomial29calculatePolynomial_r_alpha_xElll
.LEHE141:
	ld	a4,-272(s0)
	li	a5,-8192
	addi	a5,a5,-472
	addi	a5,a5,-48
	add	a5,a5,s0
	mv	a1,a4
	mv	a0,a5
	call	_ZNSt6vectorIlSaIlEEixEm
	mv	a5,a0
	ld	a4,0(a5)
	ld	a5,-280(s0)
	mul	a4,a4,a5
	ld	a5,-440(s0)
	rem	a5,a4,a5
	sd	a5,-280(s0)
	ld	a5,-280(s0)
	bge	a5,zero,.L269
	ld	a4,-280(s0)
	ld	a5,-440(s0)
	add	a5,a4,a5
	sd	a5,-280(s0)
.L269:
	li	a5,-4096
	addi	a5,a5,-48
	add	a5,a5,s0
	addi	a4,a5,-1408
	li	a5,-12288
	addi	a5,a5,968
	addi	a5,a5,-48
	add	a5,a5,s0
	ld	a3,-440(s0)
	ld	a2,-280(s0)
	mv	a1,a5
	mv	a0,a4
.LEHB142:
	call	_ZN10Polynomial26multiplyPolynomialByNumberERKSt6vectorIlSaIlEEll
	li	a5,-4096
	addi	a5,a5,-1408
	addi	a5,a5,-48
	add	a4,a5,s0
	li	a5,-12288
	addi	a5,a5,968
	addi	a5,a5,-48
	add	a5,a5,s0
	mv	a1,a4
	mv	a0,a5
	call	_ZNSt6vectorIlSaIlEEaSEOS1_
	li	a5,-4096
	addi	a5,a5,-1408
	addi	a5,a5,-48
	add	a5,a5,s0
	mv	a0,a5
	call	_ZNSt6vectorIlSaIlEED1Ev
	ld	a4,-272(s0)
	li	a5,-8192
	addi	a5,a5,-424
	addi	a5,a5,-48
	add	a5,a5,s0
	mv	a1,a4
	mv	a0,a5
	call	_ZNSt6vectorIlSaIlEEixEm
	mv	a5,a0
	ld	s1,0(a5)
	li	a5,-8192
	addi	a5,a5,-568
	addi	a5,a5,-48
	add	a5,a5,s0
	mv	a0,a5
	call	_ZNKSt6vectorIlSaIlEE4sizeEv
	mv	a5,a0
	ld	a3,-440(s0)
	mv	a2,a5
	mv	a1,s1
	ld	a0,-504(s0)
	call	_ZN10Polynomial29calculatePolynomial_r_alpha_kEllll
	mv	a2,a0
	li	a5,-4096
	addi	a5,a5,-48
	add	a5,a5,s0
	addi	a4,a5,-1384
	li	a5,-12288
	addi	a5,a5,968
	addi	a5,a5,-48
	add	a5,a5,s0
	ld	a3,-440(s0)
	mv	a1,a5
	mv	a0,a4
	call	_ZN10Polynomial26multiplyPolynomialByNumberERKSt6vectorIlSaIlEEll
	li	a5,-4096
	addi	a5,a5,-1384
	addi	a5,a5,-48
	add	a4,a5,s0
	li	a5,-12288
	addi	a5,a5,968
	addi	a5,a5,-48
	add	a5,a5,s0
	mv	a1,a4
	mv	a0,a5
	call	_ZNSt6vectorIlSaIlEEaSEOS1_
	li	a5,-4096
	addi	a5,a5,-1384
	addi	a5,a5,-48
	add	a5,a5,s0
	mv	a0,a5
	call	_ZNSt6vectorIlSaIlEED1Ev
	ld	a5,-272(s0)
	ble	a5,zero,.L270
	li	a5,-4096
	addi	a5,a5,-48
	add	a5,a5,s0
	addi	a4,a5,-1360
	li	a5,-12288
	addi	a5,a5,968
	addi	a5,a5,-48
	add	a2,a5,s0
	li	a5,-8192
	addi	a5,a5,-1464
	addi	a5,a5,-48
	add	a5,a5,s0
	ld	a3,-440(s0)
	mv	a1,a5
	mv	a0,a4
	call	_ZN10Polynomial14addPolynomialsERKSt6vectorIlSaIlEES4_l
	li	a5,-4096
	addi	a5,a5,-1360
	addi	a5,a5,-48
	add	a4,a5,s0
	li	a5,-8192
	addi	a5,a5,-1464
	addi	a5,a5,-48
	add	a5,a5,s0
	mv	a1,a4
	mv	a0,a5
	call	_ZNSt6vectorIlSaIlEEaSEOS1_
	li	a5,-4096
	addi	a5,a5,-1360
	addi	a5,a5,-48
	add	a5,a5,s0
	mv	a0,a5
	call	_ZNSt6vectorIlSaIlEED1Ev
	j	.L271
.L270:
	li	a5,-12288
	addi	a5,a5,968
	addi	a5,a5,-48
	add	a4,a5,s0
	li	a5,-8192
	addi	a5,a5,-1464
	addi	a5,a5,-48
	add	a5,a5,s0
	mv	a1,a4
	mv	a0,a5
	call	_ZNSt6vectorIlSaIlEEaSERKS1_
.LEHE142:
.L271:
	li	a5,-12288
	addi	a5,a5,968
	addi	a5,a5,-48
	add	a5,a5,s0
	mv	a0,a5
	call	_ZNSt6vectorIlSaIlEED1Ev
	li	a5,-12288
	addi	a5,a5,992
	addi	a5,a5,-48
	add	a5,a5,s0
	mv	a0,a5
	call	_ZNSt6vectorIlSaIlEED1Ev
	ld	a5,-272(s0)
	addi	a5,a5,1
	sd	a5,-272(s0)
.L268:
	ld	a4,-272(s0)
	ld	a5,-416(s0)
	blt	a4,a5,.L272
	li	a5,-4096
	addi	a5,a5,-1304
	addi	a5,a5,-48
	add	a5,a5,s0
	sd	a5,-1368(s0)
	nop
	nop
	li	a5,-4096
	addi	a5,a5,-1304
	addi	a5,a5,-48
	add	a3,a5,s0
	li	a5,-4096
	addi	a5,a5,-1336
	addi	a5,a5,-48
	add	a4,a5,s0
	mv	a2,a3
	lui	a5,%hi(.LC94)
	addi	a1,a5,%lo(.LC94)
	mv	a0,a4
.LEHB143:
	call	_ZNSt7__cxx1112basic_stringIcSt11char_traitsIcESaIcEEC1IS3_EEPKcRKS3_
.LEHE143:
	li	a5,-4096
	addi	a5,a5,-1336
	addi	a5,a5,-48
	add	a4,a5,s0
	li	a5,-8192
	addi	a5,a5,-1464
	addi	a5,a5,-48
	add	a5,a5,s0
	mv	a1,a4
	mv	a0,a5
.LEHB144:
	call	_ZN10Polynomial15printPolynomialERKSt6vectorIlSaIlEERKNSt7__cxx1112basic_stringIcSt11char_traitsIcESaIcEEE
.LEHE144:
	li	a5,-4096
	addi	a5,a5,-1336
	addi	a5,a5,-48
	add	a5,a5,s0
	mv	a0,a5
	call	_ZNSt7__cxx1112basic_stringIcSt11char_traitsIcESaIcEED1Ev
	li	a5,-4096
	addi	a5,a5,-1304
	addi	a5,a5,-48
	add	a5,a5,s0
	mv	a0,a5
	call	_ZNSt15__new_allocatorIcED2Ev
	nop
	li	a5,-8192
	addi	a5,a5,-48
	add	a5,a5,s0
	addi	a4,a5,-1488
	li	a5,-8192
	addi	a5,a5,-1416
	addi	a5,a5,-48
	add	a5,a5,s0
	ld	a3,-440(s0)
	ld	a2,-528(s0)
	mv	a1,a5
	mv	a0,a4
.LEHB145:
	call	_ZN10Polynomial26multiplyPolynomialByNumberERKSt6vectorIlSaIlEEll
.LEHE145:
	li	a5,-8192
	addi	a5,a5,-48
	add	a5,a5,s0
	addi	a4,a5,-1512
	li	a5,-8192
	addi	a5,a5,-1440
	addi	a5,a5,-48
	add	a5,a5,s0
	ld	a3,-440(s0)
	ld	a2,-536(s0)
	mv	a1,a5
	mv	a0,a4
.LEHB146:
	call	_ZN10Polynomial26multiplyPolynomialByNumberERKSt6vectorIlSaIlEEll
.LEHE146:
	li	a5,-8192
	addi	a5,a5,-48
	add	a5,a5,s0
	addi	a4,a5,-1536
	li	a5,-8192
	addi	a5,a5,-1464
	addi	a5,a5,-48
	add	a5,a5,s0
	ld	a3,-440(s0)
	ld	a2,-544(s0)
	mv	a1,a5
	mv	a0,a4
.LEHB147:
	call	_ZN10Polynomial26multiplyPolynomialByNumberERKSt6vectorIlSaIlEEll
.LEHE147:
	li	a5,-4096
	addi	a5,a5,-1264
	addi	a5,a5,-48
	add	a5,a5,s0
	sd	a5,-1376(s0)
	nop
	nop
	li	a5,-4096
	addi	a5,a5,-1264
	addi	a5,a5,-48
	add	a3,a5,s0
	li	a5,-4096
	addi	a5,a5,-1296
	addi	a5,a5,-48
	add	a4,a5,s0
	mv	a2,a3
	lui	a5,%hi(.LC95)
	addi	a1,a5,%lo(.LC95)
	mv	a0,a4
.LEHB148:
	call	_ZNSt7__cxx1112basic_stringIcSt11char_traitsIcESaIcEEC1IS3_EEPKcRKS3_
.LEHE148:
	li	a5,-4096
	addi	a5,a5,-1296
	addi	a5,a5,-48
	add	a4,a5,s0
	li	a5,-8192
	addi	a5,a5,-1488
	addi	a5,a5,-48
	add	a5,a5,s0
	mv	a1,a4
	mv	a0,a5
.LEHB149:
	call	_ZN10Polynomial15printPolynomialERKSt6vectorIlSaIlEERKNSt7__cxx1112basic_stringIcSt11char_traitsIcESaIcEEE
.LEHE149:
	li	a5,-4096
	addi	a5,a5,-1296
	addi	a5,a5,-48
	add	a5,a5,s0
	mv	a0,a5
	call	_ZNSt7__cxx1112basic_stringIcSt11char_traitsIcESaIcEED1Ev
	li	a5,-4096
	addi	a5,a5,-1264
	addi	a5,a5,-48
	add	a5,a5,s0
	mv	a0,a5
	call	_ZNSt15__new_allocatorIcED2Ev
	nop
	li	a5,-4096
	addi	a5,a5,-1224
	addi	a5,a5,-48
	add	a5,a5,s0
	sd	a5,-1384(s0)
	nop
	nop
	li	a5,-4096
	addi	a5,a5,-1224
	addi	a5,a5,-48
	add	a3,a5,s0
	li	a5,-4096
	addi	a5,a5,-1256
	addi	a5,a5,-48
	add	a4,a5,s0
	mv	a2,a3
	lui	a5,%hi(.LC96)
	addi	a1,a5,%lo(.LC96)
	mv	a0,a4
.LEHB150:
	call	_ZNSt7__cxx1112basic_stringIcSt11char_traitsIcESaIcEEC1IS3_EEPKcRKS3_
.LEHE150:
	li	a5,-4096
	addi	a5,a5,-1256
	addi	a5,a5,-48
	add	a4,a5,s0
	li	a5,-8192
	addi	a5,a5,-1512
	addi	a5,a5,-48
	add	a5,a5,s0
	mv	a1,a4
	mv	a0,a5
.LEHB151:
	call	_ZN10Polynomial15printPolynomialERKSt6vectorIlSaIlEERKNSt7__cxx1112basic_stringIcSt11char_traitsIcESaIcEEE
.LEHE151:
	li	a5,-4096
	addi	a5,a5,-1256
	addi	a5,a5,-48
	add	a5,a5,s0
	mv	a0,a5
	call	_ZNSt7__cxx1112basic_stringIcSt11char_traitsIcESaIcEED1Ev
	li	a5,-4096
	addi	a5,a5,-1224
	addi	a5,a5,-48
	add	a5,a5,s0
	mv	a0,a5
	call	_ZNSt15__new_allocatorIcED2Ev
	nop
	li	a5,-4096
	addi	a5,a5,-1184
	addi	a5,a5,-48
	add	a5,a5,s0
	sd	a5,-1392(s0)
	nop
	nop
	li	a5,-4096
	addi	a5,a5,-1184
	addi	a5,a5,-48
	add	a3,a5,s0
	li	a5,-4096
	addi	a5,a5,-1216
	addi	a5,a5,-48
	add	a4,a5,s0
	mv	a2,a3
	lui	a5,%hi(.LC97)
	addi	a1,a5,%lo(.LC97)
	mv	a0,a4
.LEHB152:
	call	_ZNSt7__cxx1112basic_stringIcSt11char_traitsIcESaIcEEC1IS3_EEPKcRKS3_
.LEHE152:
	li	a5,-4096
	addi	a5,a5,-1216
	addi	a5,a5,-48
	add	a4,a5,s0
	li	a5,-8192
	addi	a5,a5,-1536
	addi	a5,a5,-48
	add	a5,a5,s0
	mv	a1,a4
	mv	a0,a5
.LEHB153:
	call	_ZN10Polynomial15printPolynomialERKSt6vectorIlSaIlEERKNSt7__cxx1112basic_stringIcSt11char_traitsIcESaIcEEE
.LEHE153:
	li	a5,-4096
	addi	a5,a5,-1216
	addi	a5,a5,-48
	add	a5,a5,s0
	mv	a0,a5
	call	_ZNSt7__cxx1112basic_stringIcSt11char_traitsIcESaIcEED1Ev
	li	a5,-4096
	addi	a5,a5,-1184
	addi	a5,a5,-48
	add	a5,a5,s0
	mv	a0,a5
	call	_ZNSt15__new_allocatorIcED2Ev
	nop
	li	a5,-4096
	addi	a5,a5,-48
	add	a5,a5,s0
	addi	a4,a5,-1176
	li	a5,-8192
	addi	a5,a5,-1512
	addi	a5,a5,-48
	add	a2,a5,s0
	li	a5,-8192
	addi	a5,a5,-1488
	addi	a5,a5,-48
	add	a5,a5,s0
	ld	a3,-440(s0)
	mv	a1,a5
	mv	a0,a4
.LEHB154:
	call	_ZN10Polynomial14addPolynomialsERKSt6vectorIlSaIlEES4_l
.LEHE154:
	li	a5,-8192
	addi	a5,a5,-48
	add	a5,a5,s0
	addi	a4,a5,-1560
	li	a5,-8192
	addi	a5,a5,-1536
	addi	a5,a5,-48
	add	a2,a5,s0
	li	a5,-4096
	addi	a5,a5,-1176
	addi	a5,a5,-48
	add	a5,a5,s0
	ld	a3,-440(s0)
	mv	a1,a5
	mv	a0,a4
.LEHB155:
	call	_ZN10Polynomial14addPolynomialsERKSt6vectorIlSaIlEES4_l
.LEHE155:
	li	a5,-4096
	addi	a5,a5,-1176
	addi	a5,a5,-48
	add	a5,a5,s0
	mv	a0,a5
	call	_ZNSt6vectorIlSaIlEED1Ev
	li	a5,-4096
	addi	a5,a5,-1120
	addi	a5,a5,-48
	add	a5,a5,s0
	sd	a5,-1400(s0)
	nop
	nop
	li	a5,-4096
	addi	a5,a5,-1120
	addi	a5,a5,-48
	add	a3,a5,s0
	li	a5,-4096
	addi	a5,a5,-1152
	addi	a5,a5,-48
	add	a4,a5,s0
	mv	a2,a3
	lui	a5,%hi(.LC98)
	addi	a1,a5,%lo(.LC98)
	mv	a0,a4
.LEHB156:
	call	_ZNSt7__cxx1112basic_stringIcSt11char_traitsIcESaIcEEC1IS3_EEPKcRKS3_
.LEHE156:
	li	a5,-4096
	addi	a5,a5,-1152
	addi	a5,a5,-48
	add	a4,a5,s0
	li	a5,-8192
	addi	a5,a5,-1560
	addi	a5,a5,-48
	add	a5,a5,s0
	mv	a1,a4
	mv	a0,a5
.LEHB157:
	call	_ZN10Polynomial15printPolynomialERKSt6vectorIlSaIlEERKNSt7__cxx1112basic_stringIcSt11char_traitsIcESaIcEEE
.LEHE157:
	li	a5,-4096
	addi	a5,a5,-1152
	addi	a5,a5,-48
	add	a5,a5,s0
	mv	a0,a5
	call	_ZNSt7__cxx1112basic_stringIcSt11char_traitsIcESaIcEED1Ev
	li	a5,-4096
	addi	a5,a5,-1120
	addi	a5,a5,-48
	add	a5,a5,s0
	mv	a0,a5
	call	_ZNSt15__new_allocatorIcED2Ev
	nop
	li	a5,-8192
	addi	a5,a5,-48
	add	a5,a5,s0
	addi	a4,a5,-1584
	li	a5,-8192
	addi	a5,a5,-1392
	addi	a5,a5,-48
	add	a2,a5,s0
	li	a5,-8192
	addi	a5,a5,-1560
	addi	a5,a5,-48
	add	a5,a5,s0
	ld	a3,-440(s0)
	mv	a1,a5
	mv	a0,a4
.LEHB158:
	call	_ZN10Polynomial19multiplyPolynomialsERKSt6vectorIlSaIlEES4_l
.LEHE158:
	li	a5,-4096
	addi	a5,a5,-1080
	addi	a5,a5,-48
	add	a5,a5,s0
	sd	a5,-1408(s0)
	nop
	nop
	li	a5,-4096
	addi	a5,a5,-1080
	addi	a5,a5,-48
	add	a3,a5,s0
	li	a5,-4096
	addi	a5,a5,-1112
	addi	a5,a5,-48
	add	a4,a5,s0
	mv	a2,a3
	lui	a5,%hi(.LC99)
	addi	a1,a5,%lo(.LC99)
	mv	a0,a4
.LEHB159:
	call	_ZNSt7__cxx1112basic_stringIcSt11char_traitsIcESaIcEEC1IS3_EEPKcRKS3_
.LEHE159:
	li	a5,-4096
	addi	a5,a5,-1112
	addi	a5,a5,-48
	add	a4,a5,s0
	li	a5,-8192
	addi	a5,a5,-1584
	addi	a5,a5,-48
	add	a5,a5,s0
	mv	a1,a4
	mv	a0,a5
.LEHB160:
	call	_ZN10Polynomial15printPolynomialERKSt6vectorIlSaIlEERKNSt7__cxx1112basic_stringIcSt11char_traitsIcESaIcEEE
.LEHE160:
	li	a5,-4096
	addi	a5,a5,-1112
	addi	a5,a5,-48
	add	a5,a5,s0
	mv	a0,a5
	call	_ZNSt7__cxx1112basic_stringIcSt11char_traitsIcESaIcEED1Ev
	li	a5,-4096
	addi	a5,a5,-1080
	addi	a5,a5,-48
	add	a5,a5,s0
	mv	a0,a5
	call	_ZNSt15__new_allocatorIcED2Ev
	nop
	li	a5,-4096
	addi	a5,a5,-48
	add	a5,a5,s0
	addi	a4,a5,-1072
	li	a5,-8192
	addi	a5,a5,-1584
	addi	a5,a5,-48
	add	a2,a5,s0
	li	a5,-8192
	addi	a5,a5,-1344
	addi	a5,a5,-48
	add	a5,a5,s0
	ld	a3,-440(s0)
	mv	a1,a5
	mv	a0,a4
.LEHB161:
	call	_ZN10Polynomial19subtractPolynomialsERKSt6vectorIlSaIlEES4_l
.LEHE161:
	li	a5,-8192
	addi	a5,a5,-48
	add	a5,a5,s0
	addi	a4,a5,-1608
	li	a5,-4096
	addi	a5,a5,-1072
	addi	a5,a5,-48
	add	a2,a5,s0
	li	a5,-8192
	addi	a5,a5,-1192
	addi	a5,a5,-48
	add	a5,a5,s0
	ld	a3,-440(s0)
	mv	a1,a5
	mv	a0,a4
.LEHB162:
	call	_ZN10Polynomial14addPolynomialsERKSt6vectorIlSaIlEES4_l
.LEHE162:
	li	a5,-4096
	addi	a5,a5,-1072
	addi	a5,a5,-48
	add	a5,a5,s0
	mv	a0,a5
	call	_ZNSt6vectorIlSaIlEED1Ev
	li	a5,-4096
	addi	a5,a5,-1016
	addi	a5,a5,-48
	add	a5,a5,s0
	sd	a5,-1416(s0)
	nop
	nop
	li	a5,-4096
	addi	a5,a5,-1016
	addi	a5,a5,-48
	add	a3,a5,s0
	li	a5,-4096
	addi	a5,a5,-1048
	addi	a5,a5,-48
	add	a4,a5,s0
	mv	a2,a3
	lui	a5,%hi(.LC100)
	addi	a1,a5,%lo(.LC100)
	mv	a0,a4
.LEHB163:
	call	_ZNSt7__cxx1112basic_stringIcSt11char_traitsIcESaIcEEC1IS3_EEPKcRKS3_
.LEHE163:
	li	a5,-4096
	addi	a5,a5,-1048
	addi	a5,a5,-48
	add	a4,a5,s0
	li	a5,-8192
	addi	a5,a5,-1608
	addi	a5,a5,-48
	add	a5,a5,s0
	mv	a1,a4
	mv	a0,a5
.LEHB164:
	call	_ZN10Polynomial15printPolynomialERKSt6vectorIlSaIlEERKNSt7__cxx1112basic_stringIcSt11char_traitsIcESaIcEEE
.LEHE164:
	li	a5,-4096
	addi	a5,a5,-1048
	addi	a5,a5,-48
	add	a5,a5,s0
	mv	a0,a5
	call	_ZNSt7__cxx1112basic_stringIcSt11char_traitsIcESaIcEED1Ev
	li	a5,-4096
	addi	a5,a5,-1016
	addi	a5,a5,-48
	add	a5,a5,s0
	mv	a0,a5
	call	_ZNSt15__new_allocatorIcED2Ev
	nop
	li	a5,-4096
	addi	a5,a5,-48
	add	a5,a5,s0
	addi	a4,a5,-1008
	li	a5,-8192
	addi	a5,a5,-1120
	addi	a5,a5,-48
	add	a2,a5,s0
	li	a5,-8192
	addi	a5,a5,-1608
	addi	a5,a5,-48
	add	a5,a5,s0
	ld	a3,-440(s0)
	mv	a1,a5
	mv	a0,a4
.LEHB165:
	call	_ZN10Polynomial17dividePolynomialsERKSt6vectorIlSaIlEES4_l
.LEHE165:
	li	a5,-4096
	addi	a5,a5,-1008
	addi	a5,a5,-48
	add	a5,a5,s0
	li	a1,0
	mv	a0,a5
	call	_ZNSt6vectorIS_IlSaIlEESaIS1_EEixEm
	mv	a4,a0
	li	a5,-8192
	addi	a5,a5,-1632
	addi	a5,a5,-48
	add	a5,a5,s0
	mv	a1,a4
	mv	a0,a5
.LEHB166:
	call	_ZNSt6vectorIlSaIlEEC1ERKS1_
.LEHE166:
	li	a5,-4096
	addi	a5,a5,-1008
	addi	a5,a5,-48
	add	a5,a5,s0
	mv	a0,a5
	call	_ZNSt6vectorIS_IlSaIlEESaIS1_EED1Ev
	li	a5,-4096
	addi	a5,a5,-952
	addi	a5,a5,-48
	add	a5,a5,s0
	sd	a5,-1424(s0)
	nop
	nop
	li	a5,-4096
	addi	a5,a5,-952
	addi	a5,a5,-48
	add	a3,a5,s0
	li	a5,-4096
	addi	a5,a5,-984
	addi	a5,a5,-48
	add	a4,a5,s0
	mv	a2,a3
	lui	a5,%hi(.LC101)
	addi	a1,a5,%lo(.LC101)
	mv	a0,a4
.LEHB167:
	call	_ZNSt7__cxx1112basic_stringIcSt11char_traitsIcESaIcEEC1IS3_EEPKcRKS3_
.LEHE167:
	li	a5,-4096
	addi	a5,a5,-984
	addi	a5,a5,-48
	add	a4,a5,s0
	li	a5,-8192
	addi	a5,a5,-1632
	addi	a5,a5,-48
	add	a5,a5,s0
	mv	a1,a4
	mv	a0,a5
.LEHB168:
	call	_ZN10Polynomial15printPolynomialERKSt6vectorIlSaIlEERKNSt7__cxx1112basic_stringIcSt11char_traitsIcESaIcEEE
.LEHE168:
	li	a5,-4096
	addi	a5,a5,-984
	addi	a5,a5,-48
	add	a5,a5,s0
	mv	a0,a5
	call	_ZNSt7__cxx1112basic_stringIcSt11char_traitsIcESaIcEED1Ev
	li	a5,-4096
	addi	a5,a5,-952
	addi	a5,a5,-48
	add	a5,a5,s0
	mv	a0,a5
	call	_ZNSt15__new_allocatorIcED2Ev
	nop
	li	a5,-4096
	addi	a5,a5,-48
	add	a5,a5,s0
	addi	a4,a5,-944
	li	a5,-8192
	addi	a5,a5,-1120
	addi	a5,a5,-48
	add	a2,a5,s0
	li	a5,-8192
	addi	a5,a5,-1608
	addi	a5,a5,-48
	add	a5,a5,s0
	ld	a3,-440(s0)
	mv	a1,a5
	mv	a0,a4
.LEHB169:
	call	_ZN10Polynomial17dividePolynomialsERKSt6vectorIlSaIlEES4_l
.LEHE169:
	li	a5,-4096
	addi	a5,a5,-944
	addi	a5,a5,-48
	add	a5,a5,s0
	li	a1,1
	mv	a0,a5
	call	_ZNSt6vectorIS_IlSaIlEESaIS1_EEixEm
	mv	a4,a0
	li	a5,-8192
	addi	a5,a5,-1656
	addi	a5,a5,-48
	add	a5,a5,s0
	mv	a1,a4
	mv	a0,a5
.LEHB170:
	call	_ZNSt6vectorIlSaIlEEC1ERKS1_
.LEHE170:
	li	a5,-4096
	addi	a5,a5,-944
	addi	a5,a5,-48
	add	a5,a5,s0
	mv	a0,a5
	call	_ZNSt6vectorIS_IlSaIlEESaIS1_EED1Ev
	li	a5,-8192
	addi	a5,a5,-1656
	addi	a5,a5,-48
	add	a5,a5,s0
	mv	a0,a5
	call	_ZNSt6vectorIlSaIlEE5beginEv
	mv	a4,a0
	li	a5,-4096
	addi	a5,a5,-48
	add	a5,a5,s0
	sd	a4,-912(a5)
	li	a5,-4096
	addi	a5,a5,-912
	addi	a5,a5,-48
	add	a4,a5,s0
	li	a5,-4096
	addi	a5,a5,-920
	addi	a5,a5,-48
	add	a5,a5,s0
	mv	a1,a4
	mv	a0,a5
	call	_ZN9__gnu_cxx17__normal_iteratorIPKlSt6vectorIlSaIlEEEC1IPlvEERKNS0_IT_S5_EE
	li	a5,-4096
	addi	a5,a5,-48
	add	a5,a5,s0
	li	a4,-8192
	addi	a4,a4,-1656
	addi	a4,a4,-48
	add	a4,a4,s0
	ld	a1,-920(a5)
	mv	a0,a4
.LEHB171:
	call	_ZNSt6vectorIlSaIlEE5eraseEN9__gnu_cxx17__normal_iteratorIPKlS1_EE
.LEHE171:
	li	a5,-4096
	addi	a5,a5,-872
	addi	a5,a5,-48
	add	a5,a5,s0
	sd	a5,-1432(s0)
	nop
	nop
	li	a5,-4096
	addi	a5,a5,-872
	addi	a5,a5,-48
	add	a3,a5,s0
	li	a5,-4096
	addi	a5,a5,-904
	addi	a5,a5,-48
	add	a4,a5,s0
	mv	a2,a3
	lui	a5,%hi(.LC102)
	addi	a1,a5,%lo(.LC102)
	mv	a0,a4
.LEHB172:
	call	_ZNSt7__cxx1112basic_stringIcSt11char_traitsIcESaIcEEC1IS3_EEPKcRKS3_
.LEHE172:
	li	a5,-4096
	addi	a5,a5,-904
	addi	a5,a5,-48
	add	a4,a5,s0
	li	a5,-8192
	addi	a5,a5,-1656
	addi	a5,a5,-48
	add	a5,a5,s0
	mv	a1,a4
	mv	a0,a5
.LEHB173:
	call	_ZN10Polynomial15printPolynomialERKSt6vectorIlSaIlEERKNSt7__cxx1112basic_stringIcSt11char_traitsIcESaIcEEE
.LEHE173:
	li	a5,-4096
	addi	a5,a5,-904
	addi	a5,a5,-48
	add	a5,a5,s0
	mv	a0,a5
	call	_ZNSt7__cxx1112basic_stringIcSt11char_traitsIcESaIcEED1Ev
	li	a5,-4096
	addi	a5,a5,-872
	addi	a5,a5,-48
	add	a5,a5,s0
	mv	a0,a5
	call	_ZNSt15__new_allocatorIcED2Ev
	nop
	li	a5,-8192
	addi	a5,a5,-1416
	addi	a5,a5,-48
	add	a5,a5,s0
	ld	a2,-440(s0)
	ld	a1,-512(s0)
	mv	a0,a5
.LEHB174:
	call	_ZN10Polynomial18evaluatePolynomialERKSt6vectorIlSaIlEEll
	mv	a4,a0
	ld	a5,-528(s0)
	mul	a4,a4,a5
	ld	a5,-440(s0)
	rem	s1,a4,a5
	li	a5,-8192
	addi	a5,a5,-1440
	addi	a5,a5,-48
	add	a5,a5,s0
	ld	a2,-440(s0)
	ld	a1,-512(s0)
	mv	a0,a5
	call	_ZN10Polynomial18evaluatePolynomialERKSt6vectorIlSaIlEEll
	mv	a4,a0
	ld	a5,-536(s0)
	mul	a4,a4,a5
	ld	a5,-440(s0)
	rem	a5,a4,a5
	add	s1,s1,a5
	li	a5,-8192
	addi	a5,a5,-1464
	addi	a5,a5,-48
	add	a5,a5,s0
	ld	a2,-440(s0)
	ld	a1,-512(s0)
	mv	a0,a5
	call	_ZN10Polynomial18evaluatePolynomialERKSt6vectorIlSaIlEEll
	mv	a4,a0
	ld	a5,-544(s0)
	mul	a4,a4,a5
	ld	a5,-440(s0)
	rem	a5,a4,a5
	add	a4,s1,a5
	ld	a5,-440(s0)
	rem	a4,a4,a5
	li	a5,-8192
	addi	a5,a5,-48
	add	a5,a5,s0
	sd	a4,-1664(a5)
	lui	a5,%hi(.LC103)
	addi	a1,a5,%lo(.LC103)
	lui	a5,%hi(_ZSt4cout)
	addi	a0,a5,%lo(_ZSt4cout)
	call	_ZStlsISt11char_traitsIcEERSt13basic_ostreamIcT_ES5_PKc
	mv	a4,a0
	li	a5,-8192
	addi	a5,a5,-48
	add	a5,a5,s0
	ld	a5,-1664(a5)
	mv	a1,a5
	mv	a0,a4
	call	_ZNSolsEl
	mv	a4,a0
	lui	a5,%hi(_ZSt4endlIcSt11char_traitsIcEERSt13basic_ostreamIT_T0_ES6_)
	addi	a1,a5,%lo(_ZSt4endlIcSt11char_traitsIcEERSt13basic_ostreamIT_T0_ES6_)
	mv	a0,a4
	call	_ZNSolsEPFRSoS_E
.LEHE174:
	li	a5,-8192
	addi	a5,a5,-568
	addi	a5,a5,-48
	add	a5,a5,s0
	mv	a0,a5
	call	_ZNKSt6vectorIlSaIlEE4sizeEv
	mv	a1,a0
	li	a5,-4096
	addi	a5,a5,-48
	add	a5,a5,s0
	sd	zero,-864(a5)
	li	a5,-4096
	addi	a5,a5,-856
	addi	a5,a5,-48
	add	a5,a5,s0
	sd	a5,-1440(s0)
	nop
	nop
	li	a5,-4096
	addi	a5,a5,-856
	addi	a5,a5,-48
	add	a3,a5,s0
	li	a5,-4096
	addi	a5,a5,-864
	addi	a5,a5,-48
	add	a4,a5,s0
	li	a5,-8192
	addi	a5,a5,-1688
	addi	a5,a5,-48
	add	a5,a5,s0
	mv	a2,a4
	mv	a0,a5
.LEHB175:
	call	_ZNSt6vectorIlSaIlEEC1EmRKlRKS0_
.LEHE175:
	li	a5,-4096
	addi	a5,a5,-856
	addi	a5,a5,-48
	add	a5,a5,s0
	mv	a0,a5
	call	_ZNSt15__new_allocatorIlED2Ev
	nop
	li	a5,-8192
	addi	a5,a5,-568
	addi	a5,a5,-48
	add	a5,a5,s0
	mv	a0,a5
	call	_ZNKSt6vectorIlSaIlEE4sizeEv
	mv	a1,a0
	li	a5,-4096
	addi	a5,a5,-48
	add	a5,a5,s0
	sd	zero,-848(a5)
	li	a5,-4096
	addi	a5,a5,-840
	addi	a5,a5,-48
	add	a5,a5,s0
	sd	a5,-1448(s0)
	nop
	nop
	li	a5,-4096
	addi	a5,a5,-840
	addi	a5,a5,-48
	add	a3,a5,s0
	li	a5,-4096
	addi	a5,a5,-848
	addi	a5,a5,-48
	add	a4,a5,s0
	li	a5,-8192
	addi	a5,a5,-1712
	addi	a5,a5,-48
	add	a5,a5,s0
	mv	a2,a4
	mv	a0,a5
.LEHB176:
	call	_ZNSt6vectorIlSaIlEEC1EmRKlRKS0_
.LEHE176:
	li	a5,-4096
	addi	a5,a5,-840
	addi	a5,a5,-48
	add	a5,a5,s0
	mv	a0,a5
	call	_ZNSt15__new_allocatorIlED2Ev
	nop
	li	a5,-8192
	addi	a5,a5,-568
	addi	a5,a5,-48
	add	a5,a5,s0
	mv	a0,a5
	call	_ZNKSt6vectorIlSaIlEE4sizeEv
	mv	a1,a0
	li	a5,-4096
	addi	a5,a5,-48
	add	a5,a5,s0
	sd	zero,-832(a5)
	li	a5,-4096
	addi	a5,a5,-824
	addi	a5,a5,-48
	add	a5,a5,s0
	sd	a5,-1456(s0)
	nop
	nop
	li	a5,-4096
	addi	a5,a5,-824
	addi	a5,a5,-48
	add	a3,a5,s0
	li	a5,-4096
	addi	a5,a5,-832
	addi	a5,a5,-48
	add	a4,a5,s0
	li	a5,-8192
	addi	a5,a5,-1736
	addi	a5,a5,-48
	add	a5,a5,s0
	mv	a2,a4
	mv	a0,a5
.LEHB177:
	call	_ZNSt6vectorIlSaIlEEC1EmRKlRKS0_
.LEHE177:
	li	a5,-4096
	addi	a5,a5,-824
	addi	a5,a5,-48
	add	a5,a5,s0
	mv	a0,a5
	call	_ZNSt15__new_allocatorIlED2Ev
	nop
	sd	zero,-288(s0)
	j	.L273
.L277:
	ld	a4,-288(s0)
	li	a5,-8192
	addi	a5,a5,-304
	addi	a5,a5,-48
	add	a5,a5,s0
	mv	a1,a4
	mv	a0,a5
	call	_ZNSt6vectorIlSaIlEEixEm
	mv	a5,a0
	ld	s1,0(a5)
	li	a5,-8192
	addi	a5,a5,-568
	addi	a5,a5,-48
	add	a5,a5,s0
	mv	a0,a5
	call	_ZNKSt6vectorIlSaIlEE4sizeEv
	mv	a5,a0
	mv	a4,a5
	li	a5,-12288
	addi	a5,a5,-48
	add	a5,a5,s0
	addi	a5,a5,944
	ld	a3,-440(s0)
	mv	a2,a4
	mv	a1,s1
	mv	a0,a5
.LEHB178:
	call	_ZN10Polynomial29calculatePolynomial_r_alpha_xElll
.LEHE178:
	li	a5,-12288
	addi	a5,a5,944
	addi	a5,a5,-48
	add	a5,a5,s0
	ld	a2,-440(s0)
	ld	a1,-512(s0)
	mv	a0,a5
.LEHB179:
	call	_ZN10Polynomial18evaluatePolynomialERKSt6vectorIlSaIlEEll
	mv	a5,a0
	sd	a5,-296(s0)
	ld	a4,-288(s0)
	li	a5,-8192
	addi	a5,a5,-280
	addi	a5,a5,-48
	add	a5,a5,s0
	mv	a1,a4
	mv	a0,a5
	call	_ZNSt6vectorIlSaIlEEixEm
	mv	a5,a0
	ld	s1,0(a5)
	li	a5,-8192
	addi	a5,a5,-568
	addi	a5,a5,-48
	add	a5,a5,s0
	mv	a0,a5
	call	_ZNKSt6vectorIlSaIlEE4sizeEv
	mv	a5,a0
	mv	a4,a5
	li	a5,-12288
	addi	a5,a5,-48
	add	a5,a5,s0
	addi	a5,a5,920
	ld	a3,-440(s0)
	mv	a2,a4
	mv	a1,s1
	mv	a0,a5
	call	_ZN10Polynomial29calculatePolynomial_r_alpha_xElll
.LEHE179:
	ld	a4,-288(s0)
	li	a5,-8192
	addi	a5,a5,-328
	addi	a5,a5,-48
	add	a5,a5,s0
	mv	a1,a4
	mv	a0,a5
	call	_ZNSt6vectorIlSaIlEEixEm
	mv	a5,a0
	ld	a4,0(a5)
	ld	a5,-296(s0)
	mul	a4,a4,a5
	ld	a5,-440(s0)
	rem	a5,a4,a5
	sd	a5,-296(s0)
	ld	a5,-296(s0)
	bge	a5,zero,.L274
	ld	a4,-296(s0)
	ld	a5,-440(s0)
	add	a5,a4,a5
	sd	a5,-296(s0)
.L274:
	li	a5,-4096
	addi	a5,a5,-48
	add	a5,a5,s0
	addi	a4,a5,-816
	li	a5,-12288
	addi	a5,a5,920
	addi	a5,a5,-48
	add	a5,a5,s0
	ld	a3,-440(s0)
	ld	a2,-296(s0)
	mv	a1,a5
	mv	a0,a4
.LEHB180:
	call	_ZN10Polynomial26multiplyPolynomialByNumberERKSt6vectorIlSaIlEEll
	li	a5,-4096
	addi	a5,a5,-816
	addi	a5,a5,-48
	add	a4,a5,s0
	li	a5,-12288
	addi	a5,a5,920
	addi	a5,a5,-48
	add	a5,a5,s0
	mv	a1,a4
	mv	a0,a5
	call	_ZNSt6vectorIlSaIlEEaSEOS1_
	li	a5,-4096
	addi	a5,a5,-816
	addi	a5,a5,-48
	add	a5,a5,s0
	mv	a0,a5
	call	_ZNSt6vectorIlSaIlEED1Ev
	ld	a5,-288(s0)
	ble	a5,zero,.L275
	li	a5,-4096
	addi	a5,a5,-48
	add	a5,a5,s0
	addi	a4,a5,-792
	li	a5,-12288
	addi	a5,a5,920
	addi	a5,a5,-48
	add	a2,a5,s0
	li	a5,-8192
	addi	a5,a5,-1688
	addi	a5,a5,-48
	add	a5,a5,s0
	ld	a3,-440(s0)
	mv	a1,a5
	mv	a0,a4
	call	_ZN10Polynomial14addPolynomialsERKSt6vectorIlSaIlEES4_l
	li	a5,-4096
	addi	a5,a5,-792
	addi	a5,a5,-48
	add	a4,a5,s0
	li	a5,-8192
	addi	a5,a5,-1688
	addi	a5,a5,-48
	add	a5,a5,s0
	mv	a1,a4
	mv	a0,a5
	call	_ZNSt6vectorIlSaIlEEaSEOS1_
	li	a5,-4096
	addi	a5,a5,-792
	addi	a5,a5,-48
	add	a5,a5,s0
	mv	a0,a5
	call	_ZNSt6vectorIlSaIlEED1Ev
	j	.L276
.L275:
	li	a5,-12288
	addi	a5,a5,920
	addi	a5,a5,-48
	add	a4,a5,s0
	li	a5,-8192
	addi	a5,a5,-1688
	addi	a5,a5,-48
	add	a5,a5,s0
	mv	a1,a4
	mv	a0,a5
	call	_ZNSt6vectorIlSaIlEEaSERKS1_
.LEHE180:
.L276:
	li	a5,-12288
	addi	a5,a5,920
	addi	a5,a5,-48
	add	a5,a5,s0
	mv	a0,a5
	call	_ZNSt6vectorIlSaIlEED1Ev
	li	a5,-12288
	addi	a5,a5,944
	addi	a5,a5,-48
	add	a5,a5,s0
	mv	a0,a5
	call	_ZNSt6vectorIlSaIlEED1Ev
	ld	a5,-288(s0)
	addi	a5,a5,1
	sd	a5,-288(s0)
.L273:
	li	a5,-8192
	addi	a5,a5,-232
	addi	a5,a5,-48
	add	a5,a5,s0
	mv	a0,a5
	call	_ZNKSt6vectorIlSaIlEE4sizeEv
	mv	a4,a0
	ld	a5,-288(s0)
	sgtu	a5,a4,a5
	andi	a5,a5,0xff
	bne	a5,zero,.L277
	sd	zero,-304(s0)
	j	.L278
.L282:
	ld	a4,-304(s0)
	li	a5,-8192
	addi	a5,a5,-376
	addi	a5,a5,-48
	add	a5,a5,s0
	mv	a1,a4
	mv	a0,a5
	call	_ZNSt6vectorIlSaIlEEixEm
	mv	a5,a0
	ld	s1,0(a5)
	li	a5,-8192
	addi	a5,a5,-568
	addi	a5,a5,-48
	add	a5,a5,s0
	mv	a0,a5
	call	_ZNKSt6vectorIlSaIlEE4sizeEv
	mv	a5,a0
	mv	a4,a5
	li	a5,-12288
	addi	a5,a5,-48
	add	a5,a5,s0
	addi	a5,a5,896
	ld	a3,-440(s0)
	mv	a2,a4
	mv	a1,s1
	mv	a0,a5
.LEHB181:
	call	_ZN10Polynomial29calculatePolynomial_r_alpha_xElll
.LEHE181:
	li	a5,-12288
	addi	a5,a5,896
	addi	a5,a5,-48
	add	a5,a5,s0
	ld	a2,-440(s0)
	ld	a1,-512(s0)
	mv	a0,a5
.LEHB182:
	call	_ZN10Polynomial18evaluatePolynomialERKSt6vectorIlSaIlEEll
	mv	a5,a0
	sd	a5,-312(s0)
	ld	a4,-304(s0)
	li	a5,-8192
	addi	a5,a5,-352
	addi	a5,a5,-48
	add	a5,a5,s0
	mv	a1,a4
	mv	a0,a5
	call	_ZNSt6vectorIlSaIlEEixEm
	mv	a5,a0
	ld	s1,0(a5)
	li	a5,-8192
	addi	a5,a5,-568
	addi	a5,a5,-48
	add	a5,a5,s0
	mv	a0,a5
	call	_ZNKSt6vectorIlSaIlEE4sizeEv
	mv	a5,a0
	mv	a4,a5
	li	a5,-12288
	addi	a5,a5,-48
	add	a5,a5,s0
	addi	a5,a5,872
	ld	a3,-440(s0)
	mv	a2,a4
	mv	a1,s1
	mv	a0,a5
	call	_ZN10Polynomial29calculatePolynomial_r_alpha_xElll
.LEHE182:
	ld	a4,-304(s0)
	li	a5,-8192
	addi	a5,a5,-400
	addi	a5,a5,-48
	add	a5,a5,s0
	mv	a1,a4
	mv	a0,a5
	call	_ZNSt6vectorIlSaIlEEixEm
	mv	a5,a0
	ld	a4,0(a5)
	ld	a5,-312(s0)
	mul	a4,a4,a5
	ld	a5,-440(s0)
	rem	a5,a4,a5
	sd	a5,-312(s0)
	ld	a5,-312(s0)
	bge	a5,zero,.L279
	ld	a4,-312(s0)
	ld	a5,-440(s0)
	add	a5,a4,a5
	sd	a5,-312(s0)
.L279:
	li	a5,-4096
	addi	a5,a5,-48
	add	a5,a5,s0
	addi	a4,a5,-768
	li	a5,-12288
	addi	a5,a5,872
	addi	a5,a5,-48
	add	a5,a5,s0
	ld	a3,-440(s0)
	ld	a2,-312(s0)
	mv	a1,a5
	mv	a0,a4
.LEHB183:
	call	_ZN10Polynomial26multiplyPolynomialByNumberERKSt6vectorIlSaIlEEll
	li	a5,-4096
	addi	a5,a5,-768
	addi	a5,a5,-48
	add	a4,a5,s0
	li	a5,-12288
	addi	a5,a5,872
	addi	a5,a5,-48
	add	a5,a5,s0
	mv	a1,a4
	mv	a0,a5
	call	_ZNSt6vectorIlSaIlEEaSEOS1_
	li	a5,-4096
	addi	a5,a5,-768
	addi	a5,a5,-48
	add	a5,a5,s0
	mv	a0,a5
	call	_ZNSt6vectorIlSaIlEED1Ev
	ld	a5,-304(s0)
	ble	a5,zero,.L280
	li	a5,-4096
	addi	a5,a5,-48
	add	a5,a5,s0
	addi	a4,a5,-744
	li	a5,-12288
	addi	a5,a5,872
	addi	a5,a5,-48
	add	a2,a5,s0
	li	a5,-8192
	addi	a5,a5,-1712
	addi	a5,a5,-48
	add	a5,a5,s0
	ld	a3,-440(s0)
	mv	a1,a5
	mv	a0,a4
	call	_ZN10Polynomial14addPolynomialsERKSt6vectorIlSaIlEES4_l
	li	a5,-4096
	addi	a5,a5,-744
	addi	a5,a5,-48
	add	a4,a5,s0
	li	a5,-8192
	addi	a5,a5,-1712
	addi	a5,a5,-48
	add	a5,a5,s0
	mv	a1,a4
	mv	a0,a5
	call	_ZNSt6vectorIlSaIlEEaSEOS1_
	li	a5,-4096
	addi	a5,a5,-744
	addi	a5,a5,-48
	add	a5,a5,s0
	mv	a0,a5
	call	_ZNSt6vectorIlSaIlEED1Ev
	j	.L281
.L280:
	li	a5,-12288
	addi	a5,a5,872
	addi	a5,a5,-48
	add	a4,a5,s0
	li	a5,-8192
	addi	a5,a5,-1712
	addi	a5,a5,-48
	add	a5,a5,s0
	mv	a1,a4
	mv	a0,a5
	call	_ZNSt6vectorIlSaIlEEaSERKS1_
.LEHE183:
.L281:
	li	a5,-12288
	addi	a5,a5,872
	addi	a5,a5,-48
	add	a5,a5,s0
	mv	a0,a5
	call	_ZNSt6vectorIlSaIlEED1Ev
	li	a5,-12288
	addi	a5,a5,896
	addi	a5,a5,-48
	add	a5,a5,s0
	mv	a0,a5
	call	_ZNSt6vectorIlSaIlEED1Ev
	ld	a5,-304(s0)
	addi	a5,a5,1
	sd	a5,-304(s0)
.L278:
	li	a5,-8192
	addi	a5,a5,-256
	addi	a5,a5,-48
	add	a5,a5,s0
	li	a1,0
	mv	a0,a5
	call	_ZNSt6vectorIS_IlSaIlEESaIS1_EEixEm
	mv	a5,a0
	mv	a0,a5
	call	_ZNKSt6vectorIlSaIlEE4sizeEv
	mv	a4,a0
	ld	a5,-304(s0)
	sgtu	a5,a4,a5
	andi	a5,a5,0xff
	bne	a5,zero,.L282
	sd	zero,-320(s0)
	j	.L283
.L287:
	ld	a4,-320(s0)
	li	a5,-8192
	addi	a5,a5,-448
	addi	a5,a5,-48
	add	a5,a5,s0
	mv	a1,a4
	mv	a0,a5
	call	_ZNSt6vectorIlSaIlEEixEm
	mv	a5,a0
	ld	s1,0(a5)
	li	a5,-8192
	addi	a5,a5,-568
	addi	a5,a5,-48
	add	a5,a5,s0
	mv	a0,a5
	call	_ZNKSt6vectorIlSaIlEE4sizeEv
	mv	a5,a0
	mv	a4,a5
	li	a5,-12288
	addi	a5,a5,-48
	add	a5,a5,s0
	addi	a5,a5,848
	ld	a3,-440(s0)
	mv	a2,a4
	mv	a1,s1
	mv	a0,a5
.LEHB184:
	call	_ZN10Polynomial29calculatePolynomial_r_alpha_xElll
.LEHE184:
	li	a5,-12288
	addi	a5,a5,848
	addi	a5,a5,-48
	add	a5,a5,s0
	ld	a2,-440(s0)
	ld	a1,-512(s0)
	mv	a0,a5
.LEHB185:
	call	_ZN10Polynomial18evaluatePolynomialERKSt6vectorIlSaIlEEll
	mv	a5,a0
	sd	a5,-328(s0)
	ld	a4,-320(s0)
	li	a5,-8192
	addi	a5,a5,-424
	addi	a5,a5,-48
	add	a5,a5,s0
	mv	a1,a4
	mv	a0,a5
	call	_ZNSt6vectorIlSaIlEEixEm
	mv	a5,a0
	ld	s1,0(a5)
	li	a5,-8192
	addi	a5,a5,-568
	addi	a5,a5,-48
	add	a5,a5,s0
	mv	a0,a5
	call	_ZNKSt6vectorIlSaIlEE4sizeEv
	mv	a5,a0
	mv	a4,a5
	li	a5,-12288
	addi	a5,a5,-48
	add	a5,a5,s0
	addi	a5,a5,824
	ld	a3,-440(s0)
	mv	a2,a4
	mv	a1,s1
	mv	a0,a5
	call	_ZN10Polynomial29calculatePolynomial_r_alpha_xElll
.LEHE185:
	ld	a4,-320(s0)
	li	a5,-8192
	addi	a5,a5,-472
	addi	a5,a5,-48
	add	a5,a5,s0
	mv	a1,a4
	mv	a0,a5
	call	_ZNSt6vectorIlSaIlEEixEm
	mv	a5,a0
	ld	a4,0(a5)
	ld	a5,-328(s0)
	mul	a4,a4,a5
	ld	a5,-440(s0)
	rem	a5,a4,a5
	sd	a5,-328(s0)
	ld	a5,-328(s0)
	bge	a5,zero,.L284
	ld	a4,-328(s0)
	ld	a5,-440(s0)
	add	a5,a4,a5
	sd	a5,-328(s0)
.L284:
	li	a5,-4096
	addi	a5,a5,-48
	add	a5,a5,s0
	addi	a4,a5,-720
	li	a5,-12288
	addi	a5,a5,824
	addi	a5,a5,-48
	add	a5,a5,s0
	ld	a3,-440(s0)
	ld	a2,-328(s0)
	mv	a1,a5
	mv	a0,a4
.LEHB186:
	call	_ZN10Polynomial26multiplyPolynomialByNumberERKSt6vectorIlSaIlEEll
	li	a5,-4096
	addi	a5,a5,-720
	addi	a5,a5,-48
	add	a4,a5,s0
	li	a5,-12288
	addi	a5,a5,824
	addi	a5,a5,-48
	add	a5,a5,s0
	mv	a1,a4
	mv	a0,a5
	call	_ZNSt6vectorIlSaIlEEaSEOS1_
	li	a5,-4096
	addi	a5,a5,-720
	addi	a5,a5,-48
	add	a5,a5,s0
	mv	a0,a5
	call	_ZNSt6vectorIlSaIlEED1Ev
	ld	a5,-320(s0)
	ble	a5,zero,.L285
	li	a5,-4096
	addi	a5,a5,-48
	add	a5,a5,s0
	addi	a4,a5,-696
	li	a5,-12288
	addi	a5,a5,824
	addi	a5,a5,-48
	add	a2,a5,s0
	li	a5,-8192
	addi	a5,a5,-1736
	addi	a5,a5,-48
	add	a5,a5,s0
	ld	a3,-440(s0)
	mv	a1,a5
	mv	a0,a4
	call	_ZN10Polynomial14addPolynomialsERKSt6vectorIlSaIlEES4_l
	li	a5,-4096
	addi	a5,a5,-696
	addi	a5,a5,-48
	add	a4,a5,s0
	li	a5,-8192
	addi	a5,a5,-1736
	addi	a5,a5,-48
	add	a5,a5,s0
	mv	a1,a4
	mv	a0,a5
	call	_ZNSt6vectorIlSaIlEEaSEOS1_
	li	a5,-4096
	addi	a5,a5,-696
	addi	a5,a5,-48
	add	a5,a5,s0
	mv	a0,a5
	call	_ZNSt6vectorIlSaIlEED1Ev
	j	.L286
.L285:
	li	a5,-12288
	addi	a5,a5,824
	addi	a5,a5,-48
	add	a4,a5,s0
	li	a5,-8192
	addi	a5,a5,-1736
	addi	a5,a5,-48
	add	a5,a5,s0
	mv	a1,a4
	mv	a0,a5
	call	_ZNSt6vectorIlSaIlEEaSERKS1_
.LEHE186:
.L286:
	li	a5,-12288
	addi	a5,a5,824
	addi	a5,a5,-48
	add	a5,a5,s0
	mv	a0,a5
	call	_ZNSt6vectorIlSaIlEED1Ev
	li	a5,-12288
	addi	a5,a5,848
	addi	a5,a5,-48
	add	a5,a5,s0
	mv	a0,a5
	call	_ZNSt6vectorIlSaIlEED1Ev
	ld	a5,-320(s0)
	addi	a5,a5,1
	sd	a5,-320(s0)
.L283:
	ld	a4,-320(s0)
	ld	a5,-416(s0)
	blt	a4,a5,.L287
	li	a5,-4096
	addi	a5,a5,-640
	addi	a5,a5,-48
	add	a5,a5,s0
	sd	a5,-1464(s0)
	nop
	nop
	li	a5,-4096
	addi	a5,a5,-640
	addi	a5,a5,-48
	add	a3,a5,s0
	li	a5,-4096
	addi	a5,a5,-672
	addi	a5,a5,-48
	add	a4,a5,s0
	mv	a2,a3
	lui	a5,%hi(.LC104)
	addi	a1,a5,%lo(.LC104)
	mv	a0,a4
.LEHB187:
	call	_ZNSt7__cxx1112basic_stringIcSt11char_traitsIcESaIcEEC1IS3_EEPKcRKS3_
.LEHE187:
	li	a5,-4096
	addi	a5,a5,-672
	addi	a5,a5,-48
	add	a4,a5,s0
	li	a5,-8192
	addi	a5,a5,-1688
	addi	a5,a5,-48
	add	a5,a5,s0
	mv	a1,a4
	mv	a0,a5
.LEHB188:
	call	_ZN10Polynomial15printPolynomialERKSt6vectorIlSaIlEERKNSt7__cxx1112basic_stringIcSt11char_traitsIcESaIcEEE
.LEHE188:
	li	a5,-4096
	addi	a5,a5,-672
	addi	a5,a5,-48
	add	a5,a5,s0
	mv	a0,a5
	call	_ZNSt7__cxx1112basic_stringIcSt11char_traitsIcESaIcEED1Ev
	li	a5,-4096
	addi	a5,a5,-640
	addi	a5,a5,-48
	add	a5,a5,s0
	mv	a0,a5
	call	_ZNSt15__new_allocatorIcED2Ev
	nop
	li	a5,-4096
	addi	a5,a5,-600
	addi	a5,a5,-48
	add	a5,a5,s0
	sd	a5,-1472(s0)
	nop
	nop
	li	a5,-4096
	addi	a5,a5,-600
	addi	a5,a5,-48
	add	a3,a5,s0
	li	a5,-4096
	addi	a5,a5,-632
	addi	a5,a5,-48
	add	a4,a5,s0
	mv	a2,a3
	lui	a5,%hi(.LC105)
	addi	a1,a5,%lo(.LC105)
	mv	a0,a4
.LEHB189:
	call	_ZNSt7__cxx1112basic_stringIcSt11char_traitsIcESaIcEEC1IS3_EEPKcRKS3_
.LEHE189:
	li	a5,-4096
	addi	a5,a5,-632
	addi	a5,a5,-48
	add	a4,a5,s0
	li	a5,-8192
	addi	a5,a5,-1712
	addi	a5,a5,-48
	add	a5,a5,s0
	mv	a1,a4
	mv	a0,a5
.LEHB190:
	call	_ZN10Polynomial15printPolynomialERKSt6vectorIlSaIlEERKNSt7__cxx1112basic_stringIcSt11char_traitsIcESaIcEEE
.LEHE190:
	li	a5,-4096
	addi	a5,a5,-632
	addi	a5,a5,-48
	add	a5,a5,s0
	mv	a0,a5
	call	_ZNSt7__cxx1112basic_stringIcSt11char_traitsIcESaIcEED1Ev
	li	a5,-4096
	addi	a5,a5,-600
	addi	a5,a5,-48
	add	a5,a5,s0
	mv	a0,a5
	call	_ZNSt15__new_allocatorIcED2Ev
	nop
	li	a5,-4096
	addi	a5,a5,-560
	addi	a5,a5,-48
	add	a5,a5,s0
	sd	a5,-1480(s0)
	nop
	nop
	li	a5,-4096
	addi	a5,a5,-560
	addi	a5,a5,-48
	add	a3,a5,s0
	li	a5,-4096
	addi	a5,a5,-592
	addi	a5,a5,-48
	add	a4,a5,s0
	mv	a2,a3
	lui	a5,%hi(.LC106)
	addi	a1,a5,%lo(.LC106)
	mv	a0,a4
.LEHB191:
	call	_ZNSt7__cxx1112basic_stringIcSt11char_traitsIcESaIcEEC1IS3_EEPKcRKS3_
.LEHE191:
	li	a5,-4096
	addi	a5,a5,-592
	addi	a5,a5,-48
	add	a4,a5,s0
	li	a5,-8192
	addi	a5,a5,-1736
	addi	a5,a5,-48
	add	a5,a5,s0
	mv	a1,a4
	mv	a0,a5
.LEHB192:
	call	_ZN10Polynomial15printPolynomialERKSt6vectorIlSaIlEERKNSt7__cxx1112basic_stringIcSt11char_traitsIcESaIcEEE
.LEHE192:
	li	a5,-4096
	addi	a5,a5,-592
	addi	a5,a5,-48
	add	a5,a5,s0
	mv	a0,a5
	call	_ZNSt7__cxx1112basic_stringIcSt11char_traitsIcESaIcEED1Ev
	li	a5,-4096
	addi	a5,a5,-560
	addi	a5,a5,-48
	add	a5,a5,s0
	mv	a0,a5
	call	_ZNSt15__new_allocatorIcED2Ev
	nop
	li	a5,-8192
	addi	a5,a5,-48
	add	a5,a5,s0
	addi	a4,a5,-1760
	li	a5,-8192
	addi	a5,a5,-1688
	addi	a5,a5,-48
	add	a5,a5,s0
	ld	a3,-440(s0)
	ld	a2,-528(s0)
	mv	a1,a5
	mv	a0,a4
.LEHB193:
	call	_ZN10Polynomial26multiplyPolynomialByNumberERKSt6vectorIlSaIlEEll
.LEHE193:
	li	a5,-8192
	addi	a5,a5,-48
	add	a5,a5,s0
	addi	a4,a5,-1784
	li	a5,-8192
	addi	a5,a5,-1712
	addi	a5,a5,-48
	add	a5,a5,s0
	ld	a3,-440(s0)
	ld	a2,-536(s0)
	mv	a1,a5
	mv	a0,a4
.LEHB194:
	call	_ZN10Polynomial26multiplyPolynomialByNumberERKSt6vectorIlSaIlEEll
.LEHE194:
	li	a5,-8192
	addi	a5,a5,-48
	add	a5,a5,s0
	addi	a4,a5,-1808
	li	a5,-8192
	addi	a5,a5,-1736
	addi	a5,a5,-48
	add	a5,a5,s0
	ld	a3,-440(s0)
	ld	a2,-544(s0)
	mv	a1,a5
	mv	a0,a4
.LEHB195:
	call	_ZN10Polynomial26multiplyPolynomialByNumberERKSt6vectorIlSaIlEEll
.LEHE195:
	li	a5,-4096
	addi	a5,a5,-520
	addi	a5,a5,-48
	add	a5,a5,s0
	sd	a5,-1488(s0)
	nop
	nop
	li	a5,-4096
	addi	a5,a5,-520
	addi	a5,a5,-48
	add	a3,a5,s0
	li	a5,-4096
	addi	a5,a5,-552
	addi	a5,a5,-48
	add	a4,a5,s0
	mv	a2,a3
	lui	a5,%hi(.LC107)
	addi	a1,a5,%lo(.LC107)
	mv	a0,a4
.LEHB196:
	call	_ZNSt7__cxx1112basic_stringIcSt11char_traitsIcESaIcEEC1IS3_EEPKcRKS3_
.LEHE196:
	li	a5,-4096
	addi	a5,a5,-552
	addi	a5,a5,-48
	add	a4,a5,s0
	li	a5,-8192
	addi	a5,a5,-1760
	addi	a5,a5,-48
	add	a5,a5,s0
	mv	a1,a4
	mv	a0,a5
.LEHB197:
	call	_ZN10Polynomial15printPolynomialERKSt6vectorIlSaIlEERKNSt7__cxx1112basic_stringIcSt11char_traitsIcESaIcEEE
.LEHE197:
	li	a5,-4096
	addi	a5,a5,-552
	addi	a5,a5,-48
	add	a5,a5,s0
	mv	a0,a5
	call	_ZNSt7__cxx1112basic_stringIcSt11char_traitsIcESaIcEED1Ev
	li	a5,-4096
	addi	a5,a5,-520
	addi	a5,a5,-48
	add	a5,a5,s0
	mv	a0,a5
	call	_ZNSt15__new_allocatorIcED2Ev
	nop
	li	a5,-4096
	addi	a5,a5,-480
	addi	a5,a5,-48
	add	a5,a5,s0
	sd	a5,-1496(s0)
	nop
	nop
	li	a5,-4096
	addi	a5,a5,-480
	addi	a5,a5,-48
	add	a3,a5,s0
	li	a5,-4096
	addi	a5,a5,-512
	addi	a5,a5,-48
	add	a4,a5,s0
	mv	a2,a3
	lui	a5,%hi(.LC108)
	addi	a1,a5,%lo(.LC108)
	mv	a0,a4
.LEHB198:
	call	_ZNSt7__cxx1112basic_stringIcSt11char_traitsIcESaIcEEC1IS3_EEPKcRKS3_
.LEHE198:
	li	a5,-4096
	addi	a5,a5,-512
	addi	a5,a5,-48
	add	a4,a5,s0
	li	a5,-8192
	addi	a5,a5,-1784
	addi	a5,a5,-48
	add	a5,a5,s0
	mv	a1,a4
	mv	a0,a5
.LEHB199:
	call	_ZN10Polynomial15printPolynomialERKSt6vectorIlSaIlEERKNSt7__cxx1112basic_stringIcSt11char_traitsIcESaIcEEE
.LEHE199:
	li	a5,-4096
	addi	a5,a5,-512
	addi	a5,a5,-48
	add	a5,a5,s0
	mv	a0,a5
	call	_ZNSt7__cxx1112basic_stringIcSt11char_traitsIcESaIcEED1Ev
	li	a5,-4096
	addi	a5,a5,-480
	addi	a5,a5,-48
	add	a5,a5,s0
	mv	a0,a5
	call	_ZNSt15__new_allocatorIcED2Ev
	nop
	li	a5,-4096
	addi	a5,a5,-440
	addi	a5,a5,-48
	add	a5,a5,s0
	sd	a5,-1504(s0)
	nop
	nop
	li	a5,-4096
	addi	a5,a5,-440
	addi	a5,a5,-48
	add	a3,a5,s0
	li	a5,-4096
	addi	a5,a5,-472
	addi	a5,a5,-48
	add	a4,a5,s0
	mv	a2,a3
	lui	a5,%hi(.LC109)
	addi	a1,a5,%lo(.LC109)
	mv	a0,a4
.LEHB200:
	call	_ZNSt7__cxx1112basic_stringIcSt11char_traitsIcESaIcEEC1IS3_EEPKcRKS3_
.LEHE200:
	li	a5,-4096
	addi	a5,a5,-472
	addi	a5,a5,-48
	add	a4,a5,s0
	li	a5,-8192
	addi	a5,a5,-1808
	addi	a5,a5,-48
	add	a5,a5,s0
	mv	a1,a4
	mv	a0,a5
.LEHB201:
	call	_ZN10Polynomial15printPolynomialERKSt6vectorIlSaIlEERKNSt7__cxx1112basic_stringIcSt11char_traitsIcESaIcEEE
.LEHE201:
	li	a5,-4096
	addi	a5,a5,-472
	addi	a5,a5,-48
	add	a5,a5,s0
	mv	a0,a5
	call	_ZNSt7__cxx1112basic_stringIcSt11char_traitsIcESaIcEED1Ev
	li	a5,-4096
	addi	a5,a5,-440
	addi	a5,a5,-48
	add	a5,a5,s0
	mv	a0,a5
	call	_ZNSt15__new_allocatorIcED2Ev
	nop
	li	a5,-4096
	addi	a5,a5,-48
	add	a5,a5,s0
	addi	a4,a5,-408
	li	a5,-8192
	addi	a5,a5,-1784
	addi	a5,a5,-48
	add	a2,a5,s0
	li	a5,-8192
	addi	a5,a5,-1760
	addi	a5,a5,-48
	add	a5,a5,s0
	ld	a3,-440(s0)
	mv	a1,a5
	mv	a0,a4
.LEHB202:
	call	_ZN10Polynomial14addPolynomialsERKSt6vectorIlSaIlEES4_l
.LEHE202:
	li	a5,-4096
	addi	a5,a5,-48
	add	a5,a5,s0
	addi	a4,a5,-432
	li	a5,-8192
	addi	a5,a5,-1808
	addi	a5,a5,-48
	add	a2,a5,s0
	li	a5,-4096
	addi	a5,a5,-408
	addi	a5,a5,-48
	add	a5,a5,s0
	ld	a3,-440(s0)
	mv	a1,a5
	mv	a0,a4
.LEHB203:
	call	_ZN10Polynomial14addPolynomialsERKSt6vectorIlSaIlEES4_l
.LEHE203:
	li	a5,-8192
	addi	a5,a5,-48
	add	a5,a5,s0
	addi	a4,a5,-1832
	li	a5,-8192
	addi	a5,a5,-1320
	addi	a5,a5,-48
	add	a2,a5,s0
	li	a5,-4096
	addi	a5,a5,-432
	addi	a5,a5,-48
	add	a5,a5,s0
	ld	a3,-440(s0)
	mv	a1,a5
	mv	a0,a4
.LEHB204:
	call	_ZN10Polynomial19multiplyPolynomialsERKSt6vectorIlSaIlEES4_l
.LEHE204:
	li	a5,-4096
	addi	a5,a5,-432
	addi	a5,a5,-48
	add	a5,a5,s0
	mv	a0,a5
	call	_ZNSt6vectorIlSaIlEED1Ev
	li	a5,-4096
	addi	a5,a5,-408
	addi	a5,a5,-48
	add	a5,a5,s0
	mv	a0,a5
	call	_ZNSt6vectorIlSaIlEED1Ev
	li	a5,-4096
	addi	a5,a5,-352
	addi	a5,a5,-48
	add	a5,a5,s0
	sd	a5,-1512(s0)
	nop
	nop
	li	a5,-4096
	addi	a5,a5,-352
	addi	a5,a5,-48
	add	a3,a5,s0
	li	a5,-4096
	addi	a5,a5,-384
	addi	a5,a5,-48
	add	a4,a5,s0
	mv	a2,a3
	lui	a5,%hi(.LC110)
	addi	a1,a5,%lo(.LC110)
	mv	a0,a4
.LEHB205:
	call	_ZNSt7__cxx1112basic_stringIcSt11char_traitsIcESaIcEEC1IS3_EEPKcRKS3_
.LEHE205:
	li	a5,-4096
	addi	a5,a5,-384
	addi	a5,a5,-48
	add	a4,a5,s0
	li	a5,-8192
	addi	a5,a5,-1832
	addi	a5,a5,-48
	add	a5,a5,s0
	mv	a1,a4
	mv	a0,a5
.LEHB206:
	call	_ZN10Polynomial15printPolynomialERKSt6vectorIlSaIlEERKNSt7__cxx1112basic_stringIcSt11char_traitsIcESaIcEEE
.LEHE206:
	li	a5,-4096
	addi	a5,a5,-384
	addi	a5,a5,-48
	add	a5,a5,s0
	mv	a0,a5
	call	_ZNSt7__cxx1112basic_stringIcSt11char_traitsIcESaIcEED1Ev
	li	a5,-4096
	addi	a5,a5,-352
	addi	a5,a5,-48
	add	a5,a5,s0
	mv	a0,a5
	call	_ZNSt15__new_allocatorIcED2Ev
	nop
	li	a5,-4096
	addi	a5,a5,-48
	add	a5,a5,s0
	addi	a4,a5,-344
	li	a5,-8192
	addi	a5,a5,-1120
	addi	a5,a5,-48
	add	a2,a5,s0
	li	a5,-8192
	addi	a5,a5,-1832
	addi	a5,a5,-48
	add	a5,a5,s0
	ld	a3,-440(s0)
	mv	a1,a5
	mv	a0,a4
.LEHB207:
	call	_ZN10Polynomial17dividePolynomialsERKSt6vectorIlSaIlEES4_l
.LEHE207:
	li	a5,-4096
	addi	a5,a5,-344
	addi	a5,a5,-48
	add	a5,a5,s0
	li	a1,0
	mv	a0,a5
	call	_ZNSt6vectorIS_IlSaIlEESaIS1_EEixEm
	mv	a4,a0
	li	a5,-8192
	addi	a5,a5,-1856
	addi	a5,a5,-48
	add	a5,a5,s0
	mv	a1,a4
	mv	a0,a5
.LEHB208:
	call	_ZNSt6vectorIlSaIlEEC1ERKS1_
.LEHE208:
	li	a5,-4096
	addi	a5,a5,-344
	addi	a5,a5,-48
	add	a5,a5,s0
	mv	a0,a5
	call	_ZNSt6vectorIS_IlSaIlEESaIS1_EED1Ev
	li	a5,-4096
	addi	a5,a5,-288
	addi	a5,a5,-48
	add	a5,a5,s0
	sd	a5,-1520(s0)
	nop
	nop
	li	a5,-4096
	addi	a5,a5,-288
	addi	a5,a5,-48
	add	a3,a5,s0
	li	a5,-4096
	addi	a5,a5,-320
	addi	a5,a5,-48
	add	a4,a5,s0
	mv	a2,a3
	lui	a5,%hi(.LC111)
	addi	a1,a5,%lo(.LC111)
	mv	a0,a4
.LEHB209:
	call	_ZNSt7__cxx1112basic_stringIcSt11char_traitsIcESaIcEEC1IS3_EEPKcRKS3_
.LEHE209:
	li	a5,-4096
	addi	a5,a5,-320
	addi	a5,a5,-48
	add	a4,a5,s0
	li	a5,-8192
	addi	a5,a5,-1856
	addi	a5,a5,-48
	add	a5,a5,s0
	mv	a1,a4
	mv	a0,a5
.LEHB210:
	call	_ZN10Polynomial15printPolynomialERKSt6vectorIlSaIlEERKNSt7__cxx1112basic_stringIcSt11char_traitsIcESaIcEEE
.LEHE210:
	li	a5,-4096
	addi	a5,a5,-320
	addi	a5,a5,-48
	add	a5,a5,s0
	mv	a0,a5
	call	_ZNSt7__cxx1112basic_stringIcSt11char_traitsIcESaIcEED1Ev
	li	a5,-4096
	addi	a5,a5,-288
	addi	a5,a5,-48
	add	a5,a5,s0
	mv	a0,a5
	call	_ZNSt15__new_allocatorIcED2Ev
	nop
	li	a5,-4096
	addi	a5,a5,-48
	add	a5,a5,s0
	addi	a4,a5,-280
	li	a5,-8192
	addi	a5,a5,-1120
	addi	a5,a5,-48
	add	a2,a5,s0
	li	a5,-8192
	addi	a5,a5,-1832
	addi	a5,a5,-48
	add	a5,a5,s0
	ld	a3,-440(s0)
	mv	a1,a5
	mv	a0,a4
.LEHB211:
	call	_ZN10Polynomial17dividePolynomialsERKSt6vectorIlSaIlEES4_l
.LEHE211:
	li	a5,-4096
	addi	a5,a5,-280
	addi	a5,a5,-48
	add	a5,a5,s0
	li	a1,1
	mv	a0,a5
	call	_ZNSt6vectorIS_IlSaIlEESaIS1_EEixEm
	mv	a4,a0
	li	a5,-8192
	addi	a5,a5,-1880
	addi	a5,a5,-48
	add	a5,a5,s0
	mv	a1,a4
	mv	a0,a5
.LEHB212:
	call	_ZNSt6vectorIlSaIlEEC1ERKS1_
.LEHE212:
	li	a5,-4096
	addi	a5,a5,-280
	addi	a5,a5,-48
	add	a5,a5,s0
	mv	a0,a5
	call	_ZNSt6vectorIS_IlSaIlEESaIS1_EED1Ev
	li	a5,-8192
	addi	a5,a5,-1880
	addi	a5,a5,-48
	add	a5,a5,s0
	mv	a0,a5
	call	_ZNSt6vectorIlSaIlEE5beginEv
	mv	a4,a0
	li	a5,-4096
	addi	a5,a5,-48
	add	a5,a5,s0
	sd	a4,-248(a5)
	li	a5,-4096
	addi	a5,a5,-248
	addi	a5,a5,-48
	add	a4,a5,s0
	li	a5,-4096
	addi	a5,a5,-256
	addi	a5,a5,-48
	add	a5,a5,s0
	mv	a1,a4
	mv	a0,a5
	call	_ZN9__gnu_cxx17__normal_iteratorIPKlSt6vectorIlSaIlEEEC1IPlvEERKNS0_IT_S5_EE
	li	a5,-4096
	addi	a5,a5,-48
	add	a5,a5,s0
	li	a4,-8192
	addi	a4,a4,-1880
	addi	a4,a4,-48
	add	a4,a4,s0
	ld	a1,-256(a5)
	mv	a0,a4
.LEHB213:
	call	_ZNSt6vectorIlSaIlEE5eraseEN9__gnu_cxx17__normal_iteratorIPKlS1_EE
.LEHE213:
	li	a5,-4096
	addi	a5,a5,-208
	addi	a5,a5,-48
	add	a5,a5,s0
	sd	a5,-1528(s0)
	nop
	nop
	li	a5,-4096
	addi	a5,a5,-208
	addi	a5,a5,-48
	add	a3,a5,s0
	li	a5,-4096
	addi	a5,a5,-240
	addi	a5,a5,-48
	add	a4,a5,s0
	mv	a2,a3
	lui	a5,%hi(.LC112)
	addi	a1,a5,%lo(.LC112)
	mv	a0,a4
.LEHB214:
	call	_ZNSt7__cxx1112basic_stringIcSt11char_traitsIcESaIcEEC1IS3_EEPKcRKS3_
.LEHE214:
	li	a5,-4096
	addi	a5,a5,-240
	addi	a5,a5,-48
	add	a4,a5,s0
	li	a5,-8192
	addi	a5,a5,-1880
	addi	a5,a5,-48
	add	a5,a5,s0
	mv	a1,a4
	mv	a0,a5
.LEHB215:
	call	_ZN10Polynomial15printPolynomialERKSt6vectorIlSaIlEERKNSt7__cxx1112basic_stringIcSt11char_traitsIcESaIcEEE
.LEHE215:
	li	a5,-4096
	addi	a5,a5,-240
	addi	a5,a5,-48
	add	a5,a5,s0
	mv	a0,a5
	call	_ZNSt7__cxx1112basic_stringIcSt11char_traitsIcESaIcEED1Ev
	li	a5,-4096
	addi	a5,a5,-208
	addi	a5,a5,-48
	add	a5,a5,s0
	mv	a0,a5
	call	_ZNSt15__new_allocatorIcED2Ev
	nop
	li	a5,-8192
	addi	a5,a5,-1120
	addi	a5,a5,-48
	add	a5,a5,s0
	ld	a2,-440(s0)
	ld	a1,-512(s0)
	mv	a0,a5
.LEHB216:
	call	_ZN10Polynomial18evaluatePolynomialERKSt6vectorIlSaIlEEll
	mv	a5,a0
	sd	a5,-552(s0)
	lui	a5,%hi(.LC113)
	addi	a1,a5,%lo(.LC113)
	lui	a5,%hi(_ZSt4cout)
	addi	a0,a5,%lo(_ZSt4cout)
	call	_ZStlsISt11char_traitsIcEERSt13basic_ostreamIcT_ES5_PKc
	mv	a5,a0
	ld	a1,-552(s0)
	mv	a0,a5
	call	_ZNSolsEl
	mv	a4,a0
	lui	a5,%hi(_ZSt4endlIcSt11char_traitsIcEERSt13basic_ostreamIT_T0_ES6_)
	addi	a1,a5,%lo(_ZSt4endlIcSt11char_traitsIcEERSt13basic_ostreamIT_T0_ES6_)
	mv	a0,a4
	call	_ZNSolsEPFRSoS_E
	li	a5,-8192
	addi	a5,a5,-1120
	addi	a5,a5,-48
	add	a5,a5,s0
	ld	a2,-440(s0)
	ld	a1,-520(s0)
	mv	a0,a5
	call	_ZN10Polynomial18evaluatePolynomialERKSt6vectorIlSaIlEEll
	mv	a5,a0
	sd	a5,-560(s0)
	lui	a5,%hi(.LC114)
	addi	a1,a5,%lo(.LC114)
	lui	a5,%hi(_ZSt4cout)
	addi	a0,a5,%lo(_ZSt4cout)
	call	_ZStlsISt11char_traitsIcEERSt13basic_ostreamIcT_ES5_PKc
	mv	a5,a0
	ld	a1,-560(s0)
	mv	a0,a5
	call	_ZNSolsEl
	mv	a4,a0
	lui	a5,%hi(_ZSt4endlIcSt11char_traitsIcEERSt13basic_ostreamIT_T0_ES6_)
	addi	a1,a5,%lo(_ZSt4endlIcSt11char_traitsIcEERSt13basic_ostreamIT_T0_ES6_)
	mv	a0,a4
	call	_ZNSolsEPFRSoS_E
.LEHE216:
	li	a5,-8192
	addi	a5,a5,-592
	addi	a5,a5,-48
	add	a5,a5,s0
	mv	a0,a5
	call	_ZNKSt6vectorIlSaIlEE4sizeEv
	mv	a1,a0
	li	a5,-4096
	addi	a5,a5,-48
	add	a5,a5,s0
	sd	zero,-200(a5)
	li	a5,-4096
	addi	a5,a5,-192
	addi	a5,a5,-48
	add	a5,a5,s0
	sd	a5,-1536(s0)
	nop
	nop
	li	a5,-4096
	addi	a5,a5,-192
	addi	a5,a5,-48
	add	a3,a5,s0
	li	a5,-4096
	addi	a5,a5,-200
	addi	a5,a5,-48
	add	a4,a5,s0
	li	a5,-8192
	addi	a5,a5,-1904
	addi	a5,a5,-48
	add	a5,a5,s0
	mv	a2,a4
	mv	a0,a5
.LEHB217:
	call	_ZNSt6vectorIlSaIlEEC1EmRKlRKS0_
.LEHE217:
	li	a5,-4096
	addi	a5,a5,-192
	addi	a5,a5,-48
	add	a5,a5,s0
	mv	a0,a5
	call	_ZNSt15__new_allocatorIlED2Ev
	nop
	li	a5,-8192
	addi	a5,a5,-48
	add	a5,a5,s0
	sd	zero,-1912(a5)
	sd	zero,-336(s0)
	j	.L288
.L295:
	ld	a4,-336(s0)
	li	a5,-8192
	addi	a5,a5,-592
	addi	a5,a5,-48
	add	a5,a5,s0
	mv	a1,a4
	mv	a0,a5
	call	_ZNSt6vectorIlSaIlEEixEm
	mv	a5,a0
	ld	a4,0(a5)
	li	a5,-8192
	addi	a5,a5,-16
	addi	a5,a5,-48
	add	a5,a5,s0
	ld	a2,-440(s0)
	mv	a1,a4
	mv	a0,a5
.LEHB218:
	call	_ZN10Polynomial18evaluatePolynomialERKSt6vectorIlSaIlEEll
	mv	a4,a0
	ld	a5,-520(s0)
	sub	s1,a5,a4
	ld	a4,-336(s0)
	li	a5,-8192
	addi	a5,a5,-592
	addi	a5,a5,-48
	add	a5,a5,s0
	mv	a1,a4
	mv	a0,a5
	call	_ZNSt6vectorIlSaIlEEixEm
	mv	a5,a0
	ld	a4,0(a5)
	li	a5,-8192
	addi	a5,a5,-40
	addi	a5,a5,-48
	add	a5,a5,s0
	ld	a2,-440(s0)
	mv	a1,a4
	mv	a0,a5
	call	_ZN10Polynomial18evaluatePolynomialERKSt6vectorIlSaIlEEll
	mv	a4,a0
	ld	a5,-512(s0)
	sub	a5,a5,a4
	mul	a4,s1,a5
	ld	a5,-440(s0)
	rem	a5,a4,a5
	sd	a5,-344(s0)
	ld	a5,-344(s0)
	bge	a5,zero,.L289
	ld	a4,-344(s0)
	ld	a5,-440(s0)
	add	a5,a4,a5
	sd	a5,-344(s0)
.L289:
	ld	a4,-336(s0)
	li	a5,-8192
	addi	a5,a5,-592
	addi	a5,a5,-48
	add	a5,a5,s0
	mv	a1,a4
	mv	a0,a5
	call	_ZNSt6vectorIlSaIlEEixEm
	mv	a5,a0
	ld	a4,0(a5)
	li	a5,-8192
	addi	a5,a5,-88
	addi	a5,a5,-48
	add	a5,a5,s0
	ld	a2,-440(s0)
	mv	a1,a4
	mv	a0,a5
	call	_ZN10Polynomial18evaluatePolynomialERKSt6vectorIlSaIlEEll
	mv	a4,a0
	ld	a5,-520(s0)
	sub	s1,a5,a4
	ld	a4,-336(s0)
	li	a5,-8192
	addi	a5,a5,-592
	addi	a5,a5,-48
	add	a5,a5,s0
	mv	a1,a4
	mv	a0,a5
	call	_ZNSt6vectorIlSaIlEEixEm
	mv	a5,a0
	ld	a4,0(a5)
	li	a5,-8192
	addi	a5,a5,-112
	addi	a5,a5,-48
	add	a5,a5,s0
	ld	a2,-440(s0)
	mv	a1,a4
	mv	a0,a5
	call	_ZN10Polynomial18evaluatePolynomialERKSt6vectorIlSaIlEEll
	mv	a4,a0
	ld	a5,-512(s0)
	sub	a5,a5,a4
	mul	a4,s1,a5
	ld	a5,-440(s0)
	rem	a5,a4,a5
	sd	a5,-352(s0)
	ld	a5,-352(s0)
	bge	a5,zero,.L290
	ld	a4,-352(s0)
	ld	a5,-440(s0)
	add	a5,a4,a5
	sd	a5,-352(s0)
.L290:
	ld	a4,-336(s0)
	li	a5,-8192
	addi	a5,a5,-592
	addi	a5,a5,-48
	add	a5,a5,s0
	mv	a1,a4
	mv	a0,a5
	call	_ZNSt6vectorIlSaIlEEixEm
	mv	a5,a0
	ld	a4,0(a5)
	li	a5,-8192
	addi	a5,a5,-160
	addi	a5,a5,-48
	add	a5,a5,s0
	ld	a2,-440(s0)
	mv	a1,a4
	mv	a0,a5
	call	_ZN10Polynomial18evaluatePolynomialERKSt6vectorIlSaIlEEll
	mv	a4,a0
	ld	a5,-520(s0)
	sub	s1,a5,a4
	ld	a4,-336(s0)
	li	a5,-8192
	addi	a5,a5,-592
	addi	a5,a5,-48
	add	a5,a5,s0
	mv	a1,a4
	mv	a0,a5
	call	_ZNSt6vectorIlSaIlEEixEm
	mv	a5,a0
	ld	a4,0(a5)
	li	a5,-8192
	addi	a5,a5,-184
	addi	a5,a5,-48
	add	a5,a5,s0
	ld	a2,-440(s0)
	mv	a1,a4
	mv	a0,a5
	call	_ZN10Polynomial18evaluatePolynomialERKSt6vectorIlSaIlEEll
	mv	a4,a0
	ld	a5,-512(s0)
	sub	a5,a5,a4
	mul	a4,s1,a5
	ld	a5,-440(s0)
	rem	a5,a4,a5
	sd	a5,-360(s0)
	ld	a5,-360(s0)
	bge	a5,zero,.L291
	ld	a4,-360(s0)
	ld	a5,-440(s0)
	add	a5,a4,a5
	sd	a5,-360(s0)
.L291:
	ld	a4,-560(s0)
	ld	a5,-552(s0)
	mul	a4,a4,a5
	ld	a5,-440(s0)
	rem	a4,a4,a5
	ld	a5,-528(s0)
	mul	a4,a4,a5
	ld	a5,-440(s0)
	rem	s1,a4,a5
	ld	a4,-336(s0)
	li	a5,-8192
	addi	a5,a5,-592
	addi	a5,a5,-48
	add	a5,a5,s0
	mv	a1,a4
	mv	a0,a5
	call	_ZNSt6vectorIlSaIlEEixEm
	mv	a5,a0
	ld	a4,0(a5)
	li	a5,-8192
	addi	a5,a5,-64
	addi	a5,a5,-48
	add	a5,a5,s0
	ld	a2,-440(s0)
	mv	a1,a4
	mv	a0,a5
	call	_ZN10Polynomial18evaluatePolynomialERKSt6vectorIlSaIlEEll
	mv	a5,a0
	mul	a4,s1,a5
	ld	a5,-440(s0)
	rem	s1,a4,a5
	ld	a1,-440(s0)
	ld	a0,-344(s0)
	call	_ZN10Polynomial8pInverseEll
	mv	a5,a0
	mul	a4,s1,a5
	ld	a5,-440(s0)
	rem	a5,a4,a5
	sd	a5,-368(s0)
	ld	a5,-368(s0)
	bge	a5,zero,.L292
	ld	a4,-368(s0)
	ld	a5,-440(s0)
	add	a5,a4,a5
	sd	a5,-368(s0)
.L292:
	ld	a4,-560(s0)
	ld	a5,-552(s0)
	mul	a4,a4,a5
	ld	a5,-440(s0)
	rem	a4,a4,a5
	ld	a5,-536(s0)
	mul	a4,a4,a5
	ld	a5,-440(s0)
	rem	s1,a4,a5
	ld	a4,-336(s0)
	li	a5,-8192
	addi	a5,a5,-592
	addi	a5,a5,-48
	add	a5,a5,s0
	mv	a1,a4
	mv	a0,a5
	call	_ZNSt6vectorIlSaIlEEixEm
	mv	a5,a0
	ld	a4,0(a5)
	li	a5,-8192
	addi	a5,a5,-136
	addi	a5,a5,-48
	add	a5,a5,s0
	ld	a2,-440(s0)
	mv	a1,a4
	mv	a0,a5
	call	_ZN10Polynomial18evaluatePolynomialERKSt6vectorIlSaIlEEll
	mv	a5,a0
	mul	a4,s1,a5
	ld	a5,-440(s0)
	rem	s1,a4,a5
	ld	a1,-440(s0)
	ld	a0,-352(s0)
	call	_ZN10Polynomial8pInverseEll
	mv	a5,a0
	mul	a4,s1,a5
	ld	a5,-440(s0)
	rem	a5,a4,a5
	sd	a5,-376(s0)
	ld	a5,-376(s0)
	bge	a5,zero,.L293
	ld	a4,-376(s0)
	ld	a5,-440(s0)
	add	a5,a4,a5
	sd	a5,-376(s0)
.L293:
	ld	a4,-560(s0)
	ld	a5,-552(s0)
	mul	a4,a4,a5
	ld	a5,-440(s0)
	rem	a4,a4,a5
	ld	a5,-544(s0)
	mul	a4,a4,a5
	ld	a5,-440(s0)
	rem	s1,a4,a5
	ld	a4,-336(s0)
	li	a5,-8192
	addi	a5,a5,-592
	addi	a5,a5,-48
	add	a5,a5,s0
	mv	a1,a4
	mv	a0,a5
	call	_ZNSt6vectorIlSaIlEEixEm
	mv	a5,a0
	ld	a4,0(a5)
	li	a5,-8192
	addi	a5,a5,-208
	addi	a5,a5,-48
	add	a5,a5,s0
	ld	a2,-440(s0)
	mv	a1,a4
	mv	a0,a5
	call	_ZN10Polynomial18evaluatePolynomialERKSt6vectorIlSaIlEEll
	mv	a5,a0
	mul	a4,s1,a5
	ld	a5,-440(s0)
	rem	s1,a4,a5
	ld	a1,-440(s0)
	ld	a0,-360(s0)
	call	_ZN10Polynomial8pInverseEll
	mv	a5,a0
	mul	a4,s1,a5
	ld	a5,-440(s0)
	rem	a5,a4,a5
	sd	a5,-384(s0)
	ld	a5,-384(s0)
	bge	a5,zero,.L294
	ld	a4,-384(s0)
	ld	a5,-440(s0)
	add	a5,a4,a5
	sd	a5,-384(s0)
.L294:
	ld	a4,-368(s0)
	ld	a5,-376(s0)
	add	a4,a4,a5
	ld	a5,-384(s0)
	add	a4,a4,a5
	ld	a5,-440(s0)
	rem	s1,a4,a5
	ld	a4,-336(s0)
	li	a5,-8192
	addi	a5,a5,-1904
	addi	a5,a5,-48
	add	a5,a5,s0
	mv	a1,a4
	mv	a0,a5
	call	_ZNSt6vectorIlSaIlEEixEm
	mv	a5,a0
	sd	s1,0(a5)
	ld	a4,-336(s0)
	li	a5,-8192
	addi	a5,a5,-1904
	addi	a5,a5,-48
	add	a5,a5,s0
	mv	a1,a4
	mv	a0,a5
	call	_ZNSt6vectorIlSaIlEEixEm
	mv	a5,a0
	ld	a4,0(a5)
	li	a5,-8192
	addi	a5,a5,-48
	add	a5,a5,s0
	ld	a5,-1912(a5)
	add	a4,a4,a5
	li	a5,-8192
	addi	a5,a5,-48
	add	a5,a5,s0
	sd	a4,-1912(a5)
	li	a5,-8192
	addi	a5,a5,-48
	add	a5,a5,s0
	ld	a4,-1912(a5)
	ld	a5,-440(s0)
	rem	a4,a4,a5
	li	a5,-8192
	addi	a5,a5,-48
	add	a5,a5,s0
	sd	a4,-1912(a5)
	ld	a5,-336(s0)
	addi	a5,a5,1
	sd	a5,-336(s0)
.L288:
	li	a5,-8192
	addi	a5,a5,-592
	addi	a5,a5,-48
	add	a5,a5,s0
	mv	a0,a5
	call	_ZNKSt6vectorIlSaIlEE4sizeEv
	mv	a4,a0
	ld	a5,-336(s0)
	sgtu	a5,a4,a5
	andi	a5,a5,0xff
	bne	a5,zero,.L295
	lui	a5,%hi(.LC115)
	addi	a1,a5,%lo(.LC115)
	lui	a5,%hi(_ZSt4cout)
	addi	a0,a5,%lo(_ZSt4cout)
	call	_ZStlsISt11char_traitsIcEERSt13basic_ostreamIcT_ES5_PKc
	mv	a4,a0
	li	a5,-8192
	addi	a5,a5,-48
	add	a5,a5,s0
	ld	a5,-1912(a5)
	mv	a1,a5
	mv	a0,a4
	call	_ZNSolsEl
	mv	a4,a0
	lui	a5,%hi(_ZSt4endlIcSt11char_traitsIcEERSt13basic_ostreamIT_T0_ES6_)
	addi	a1,a5,%lo(_ZSt4endlIcSt11char_traitsIcEERSt13basic_ostreamIT_T0_ES6_)
	mv	a0,a4
	call	_ZNSolsEPFRSoS_E
.LEHE218:
